(lp0
(ccopy_reg
_reconstructor
p1
(c__builtin__
object
p2
g2
Ntp3
Rp4
V.
p5
g5
tp6
a(F4.0
g4
g5
tp7
a(F5.0
g4
g5
tp8
a(F0.5
g4
g5
tp9
a(F3.0
g4
g5
tp10
a(F2.5
g4
g5
tp11
a(F1.0
g4
g5
tp12
a(g4
Vc
p13
Vest
p14
tp15
a(F4.0
g4
Vde
p16
tp17
a(F2.0
g4
g5
tp18
a(F5.0
g4
Vde
p19
tp20
a(F4.0
g4
Vet
p21
tp22
a(F4.5
g4
g5
tp23
a(F3.0
g4
Vde
p24
tp25
a(g4
Vce
p26
Vfilm
p27
tp28
a(F4.0
g4
Vun
p29
tp30
a(g4
Vun
p31
Vfilm
p32
tp33
a(F5.0
g4
Vet
p34
tp35
a(g4
V!
p36
g36
tp37
a(F2.5
g4
Vde
p38
tp39
a.