(i__main__
AlgorithmTreeNorm
p1
(dp2
S'edges'
p3
(dp4
I0
(i__main__
AlgorithmTreeNorm
p5
(dp6
g3
(dp7
(I0
I1
tp8
(i__main__
AlgorithmTreeNorm
p9
(dp10
g3
(dp11
sS'empirical_probability'
p12
NsS'weight'
p13
I1
sbs(I0
tp14
(i__main__
AlgorithmTreeNorm
p15
(dp16
g3
(dp17
(F2
ccopy_reg
_reconstructor
p18
(c__builtin__
object
p19
g19
NtRp20
g20
tp21
(i__main__
AlgorithmTreeNorm
p22
(dp23
g3
(dp24
sg12
I160337
sg13
I1
sbs(F4
g20
g20
tp25
(i__main__
AlgorithmTreeNorm
p26
(dp27
g3
(dp28
sg12
I344636
sg13
I2
sbs(F1
g20
g20
tp29
(i__main__
AlgorithmTreeNorm
p30
(dp31
g3
(dp32
sg12
I184939
sg13
I1
sbs(F2.5
g20
g20
tp33
(i__main__
AlgorithmTreeNorm
p34
(dp35
g3
(dp36
sg12
I234029
sg13
I1
sbs(F4
V.
g20
tp37
(i__main__
AlgorithmTreeNorm
p38
(dp39
g3
(dp40
sg12
I16658
sg13
I2
sbs(F3.5
g20
g20
tp41
(i__main__
AlgorithmTreeNorm
p42
(dp43
g3
(dp44
sg12
I144138
sg13
I1
sbs(F4.5
g20
g20
tp45
(i__main__
AlgorithmTreeNorm
p46
(dp47
g3
(dp48
sg12
I154137
sg13
I1
sbs(F3
g20
g20
tp49
(i__main__
AlgorithmTreeNorm
p50
(dp51
g3
(dp52
sg12
I258910
sg13
I1
sbs(F5
V.
g20
tp53
(i__main__
AlgorithmTreeNorm
p54
(dp55
g3
(dp56
sg12
I15601
sg13
I2
sbs(F1.5
g20
g20
tp57
(i__main__
AlgorithmTreeNorm
p58
(dp59
g3
(dp60
sg12
I64405
sg13
I1
sbs(F0.5
g20
g20
tp61
(i__main__
AlgorithmTreeNorm
p62
(dp63
g3
(dp64
sg12
I216049
sg13
I1
sbs(F5
g20
g20
tp65
(i__main__
AlgorithmTreeNorm
p66
(dp67
g3
(dp68
sg12
I300798
sg13
I2
sbssg12
Nsg13
I1
sbs(I0
I1
I2
tp69
(i__main__
AlgorithmTreeNorm
p70
(dp71
g3
(dp72
(F4
V.
V.
tp73
g38
ssg12
Nsg13
I1
sbs(I0
I1
I3
tp74
(i__main__
AlgorithmTreeNorm
p75
(dp76
g3
(dp77
(F5
V.
V.
tp78
g54
ssg12
Nsg13
I1
sbs(I0
I3
tp79
(i__main__
AlgorithmTreeNorm
p80
(dp81
g3
(dp82
(F5
g20
V.
tp83
g66
ssg12
Nsg13
I1
sbs(I0
I2
tp84
(i__main__
AlgorithmTreeNorm
p85
(dp86
g3
(dp87
(F4
g20
V.
tp88
g26
ssg12
Nsg13
I1
sbssg12
F2079256.3333333333
sg13
I0
sbsI1
(i__main__
AlgorithmTreeNorm
p89
(dp90
g3
(dp91
g69
g70
sg8
g9
sg74
g75
ssg12
F2926
sg13
I0
sbsI2
(i__main__
AlgorithmTreeNorm
p92
(dp93
g3
(dp94
g69
g70
sg84
g85
ssg12
F6514.3333333333339
sg13
I0
sbsI3
(i__main__
AlgorithmTreeNorm
p95
(dp96
g3
(dp97
g79
g80
sg74
g75
ssg12
F5940.333333333333
sg13
I0
sbsI4
(i__main__
AlgorithmTreeNorm
p98
(dp99
g3
(dp100
sg12
I0
sg13
I0
sbsI5
(i__main__
AlgorithmTreeNorm
p101
(dp102
g3
(dp103
sg12
I0
sg13
I0
sbssg12
I0
sg13
I0
sb.