(iFeaturesTree
FeaturesTree
p1
(dp2
S'edges'
p3
(dp4
ccopy_reg
_reconstructor
p5
(c__builtin__
object
p6
g6
NtRp7
(iFeaturesTree
FeaturesTree
p8
(dp9
g3
(dp10
g7
(iFeaturesTree
FeaturesTree
p11
(dp12
g3
(dp13
g7
(iFeaturesTree
FeaturesTree
p14
(dp15
g3
(dp16
g7
NssS'features'
p17
c__builtin__
set
p18
((ltRp19
sS'feature_index'
p20
(I0
tp21
sS'occurrences'
p22
I1283335
sbsV.
(iFeaturesTree
FeaturesTree
p23
(dp24
g3
(dp25
g7
Nssg17
g18
((ltRp26
sg20
(I0
tp27
sg22
I61435
sbssg17
g18
((ltRp28
sg20
I0
sg22
I1344770
sbsV.
(iFeaturesTree
FeaturesTree
p29
(dp30
g3
(dp31
g7
(iFeaturesTree
FeaturesTree
p32
(dp33
g3
(dp34
g7
Nssg17
g18
((ltRp35
sg20
(I0
tp36
sg22
I49190
sbsV.
(iFeaturesTree
FeaturesTree
p37
(dp38
g3
(dp39
g7
Nssg17
g18
((lp40
(g5
(g6
g6
NtRp41
V.
V.
tp42
atRp43
sg20
(I0
I1
tp44
sg22
I22984
sbssg17
g18
((lp45
g42
atRp46
sg20
I0
sg22
I72174
sbssg17
g18
((lp47
g42
atRp48
sg20
I0
sg22
I1416944
sbsF4
(iFeaturesTree
FeaturesTree
p49
(dp50
g3
(dp51
g7
(iFeaturesTree
FeaturesTree
p52
(dp53
g3
(dp54
g7
(iFeaturesTree
FeaturesTree
p55
(dp56
g3
(dp57
g7
Nssg17
g18
((ltRp58
sg20
(I0
tp59
sg22
I329241
sbsV.
(iFeaturesTree
FeaturesTree
p60
(dp61
g3
(dp62
g7
Nssg17
g18
((lp63
(F4
g41
V.
tp64
atRp65
sg20
(I0
I2
tp66
sg22
I15395
sbssg17
g18
((lp67
g64
atRp68
sg20
I0
sg22
I344636
sbsV.
(iFeaturesTree
FeaturesTree
p69
(dp70
g3
(dp71
g7
(iFeaturesTree
FeaturesTree
p72
(dp73
g3
(dp74
g7
Nssg17
g18
((ltRp75
sg20
(I0
tp76
sg22
I12510
sbsV.
(iFeaturesTree
FeaturesTree
p77
(dp78
g3
(dp79
g7
Nssg17
g18
((lp80
g42
ag64
atRp81
sg20
(I0
I1
I2
tp82
sg22
I4148
sbssg17
g18
((lp83
g42
ag64
atRp84
sg20
I0
sg22
I16658
sbssg17
g18
((lp85
g42
ag64
atRp86
sg20
I0
sg22
I361294
sbsF5
(iFeaturesTree
FeaturesTree
p87
(dp88
g3
(dp89
g7
(iFeaturesTree
FeaturesTree
p90
(dp91
g3
(dp92
g7
(iFeaturesTree
FeaturesTree
p93
(dp94
g3
(dp95
g7
Nssg17
g18
((ltRp96
sg20
(I0
tp97
sg22
I287607
sbsV.
(iFeaturesTree
FeaturesTree
p98
(dp99
g3
(dp100
g7
Nssg17
g18
((lp101
(F5
g41
V.
tp102
atRp103
sg20
(I0
I3
tp104
sg22
I13191
sbssg17
g18
((lp105
g102
atRp106
sg20
I0
sg22
I300798
sbsV.
(iFeaturesTree
FeaturesTree
p107
(dp108
g3
(dp109
g7
(iFeaturesTree
FeaturesTree
p110
(dp111
g3
(dp112
g7
Nssg17
g18
((ltRp113
sg20
(I0
tp114
sg22
I10971
sbsV.
(iFeaturesTree
FeaturesTree
p115
(dp116
g3
(dp117
g7
Nssg17
g18
((lp118
g42
ag102
atRp119
sg20
(I0
I1
I3
tp120
sg22
I4630
sbssg17
g18
((lp121
g42
ag102
atRp122
sg20
I0
sg22
I15601
sbssg17
g18
((lp123
g42
ag102
atRp124
sg20
I0
sg22
I316399
sbssg17
g18
((lp125
g42
ag64
ag102
atRp126
sg20
I0
sg22
I0
sb.