(dp1
I0
F-0.48281453332973001
sI1
F5.0553837437792142
sI2
F5.1485267325338055
sI3
F5.207751769519918
sI4
F5.7510212157962686
sI5
F5.4679428375446317
sI6
F5.6005644772062135
sI7
F5.9741315752500448
sI8
F11.917464791427527
sI9
F4.0714797572384684
sI10
F6.0479146737864733
sI11
F4.107380395900595
sI12
F3.5007977816325626
sI13
F5.9814216869044516
sI14
F4.3941898241452382
sI15
F11.17979410807164
sI16
F1.3686576931442902
sI17
F6.8597408471701424
sI18
F3.5343579145829169
sI19
F9.4547546224113326
sI20
F4.3726527767082581
sI21
F1.4252198120087476
sI22
F5.8802536948791264
sI23
F0.38749441157103259
sI24
F1.1830031302150017
sI25
F0.43936299040755333
sI26
F1.7065934086196544
sI27
F4.4825157942411709
sI28
F-1.4286851644808305
sI29
F7.8943358761344458
sI30
F-2.5122584472675298
sI31
F0.6360131758479648
sI32
F1.5714293388510274
sI33
F5.8947390783280058
sI34
F1.8194850173775565
sI35
F3.5055274713538678
sI36
F0.57462111712433295
sI37
F1.9927357324185859
sI38
F3.4156855954966172
sI39
F4.5864557788659726
sI40
F15.510103507299355
sI41
F2.1723975717793271
sI42
F0.64512724438513747
sI43
F4.9148496516809779
sI44
F4.8920399432579513
sI45
F-0.22238815319293348
sI46
F3.3297914100899044
sI47
F1.7933347871659695
sI48
F1.4705523904517666
sI49
F4.9108635645853349
sI50
F1.9900347252697239
sI51
F-0.1310476725947316
sI52
F0.1056302307794823
sI53
F0.65725140622610922
sI54
F6.3404361424002298
sI55
F9.804451804560955
sI56
F0.46549145041014306
sI57
F1.0229758322631879
sI58
F-2.1701584975331887
sI59
F4.8562164750850592
sI60
F8.4300912136666781
sI61
F2.0359988463302274
sI62
F0.22185516056389432
sI63
F3.2353304317358385
sI64
F-0.25451050585651913
sI65
F1.6196524115697537
sI66
F1.2032303997826315
sI67
F2.4995612481930172
sI68
F0.039609708815929068
sI69
F7.1152972985317753
sI70
F0.75010787279304303
sI71
F0.22751342660533247
sI72
F0.25009047665154949
sI73
F4.3240460766881714
sI74
F3.6567101841962382
sI75
F1.3930880474842402
sI76
F0.9288166931189723
sI77
F6.0593645772803777
sI78
F-2.2498423494307191
sI79
F12.465145738486431
sI80
F2.5623129863138807
sI81
F-0.0059689685777888357
sI82
F1.9276740746168723
sI83
F0.19455298218717409
sI84
F2.6041989770698386
sI85
F1.3689363295216044
sI86
F0.66315755155520595
sI87
F0.038540509080173813
sI88
F0.70089555628936573
sI89
F4.196129623795156
sI90
F3.8479768736914721
sI91
F-0.096293829479884963
sI92
F2.3538482775110374
sI93
F5.3115238980285424
sI94
F-0.15751745137902518
sI95
F7.9178256616148088
sI96
F2.5465684755391775
sI97
F6.4771569815299905
sI98
F2.5565233900275679
sI99
F1.7491492894110801
sI100
F11.361605380737686
sI101
F-2.4108870178524784
sI102
F11.062886546750407
sI103
F1.6385405302426346
sI104
F-0.47790153099427179
sI105
F0.14443903450058482
sI106
F3.9557382631935329
sI107
F0.11649582357216026
sI108
F-0.89427973276374573
sI109
F0.10358390650200544
sI110
F14.980273485060238
sI111
F1.3220322074438506
sI112
F1.2444149042021033
sI113
F0.36891921778072767
sI114
F1.2432546468969843
sI115
F0.32147384564074688
sI116
F11.126461858563992
sI117
F0.15495960714206003
sI118
F0.91218541069697512
sI119
F2.4921532084609224
sI120
F6.8941713725919085
sI121
F1.8657455271668208
sI122
F0.50067942819408451
sI123
F-0.40218504013178968
sI124
F9.0663979815667162
sI125
F1.0443481688216742
sI126
F1.8732186450139103
sI127
F-1.3608704487709931
sI128
F2.2140245249250388
sI129
F0.19467935455477203
sI130
F2.4389665690875759
sI131
F0.42677574182042743
sI132
F1.3781823173098111
sI133
F1.3635617301243457
sI134
F0.55769176860460234
sI135
F-1.5873645119798478
sI136
F0.31507188321068647
sI137
F-0.90735958962185492
sI138
F1.4055152600886816
sI139
F6.751893004054538
sI140
F8.3008913001553015
sI141
F1.9881855910355837
sI142
F5.0752126882506605
sI143
F0.88502950139023984
sI144
F-2.1164183365345393
sI145
F0.75442267311949074
sI146
F0.028446070908600518
sI147
F1.3009401391277713
sI148
F-0.35710794782831989
sI149
F1.2197830391235929
sI150
F8.1055558763477933
sI151
F1.2120590735576018
sI152
F-0.50178820911582722
sI153
F-2.4453568511535124
sI154
F5.4854470460467146
sI155
F0.30580706316834672
sI156
F0.97474951838397583
sI157
F1.4764000649712017
sI158
F0.77434770997129565
sI159
F7.9921945091245492
sI160
F13.121140388982411
sI161
F0.30095271985254612
sI162
F0.46860735744624371
sI163
F-0.64050375921350255
sI164
F1.1354420757870365
sI165
F1.7734851216953196
sI166
F-1.1467655824258864
sI167
F-0.15307074204856264
sI168
F1.360539012773109
sI169
F4.4682777447712336
sI170
F2.155122138157231
sI171
F-0.30320033307232386
sI172
F0.469458674510709
sI173
F1.344897526968305
sI174
F-1.1971965264109112
sI175
F0.34521805939840444
sI176
F-1.612846179450349
sI177
F7.7930189094274454
sI178
F14.837929701085489
sI179
F-0.59612516187326481
sI180
F0.39796502366162301
sI181
F-0.42150272638395148
sI182
F-1.0160176834669556
sI183
F0.64142435242618667
sI184
F-0.085739654237361407
sI185
F0.46255047025269747
sI186
F1.1447787519823045
sI187
F1.5280672960968484
sI188
F-0.7140117182013288
sI189
F2.46000691741237
sI190
F0.22248063914754468
sI191
F-0.10413382126320947
sI192
F6.5070091721087113
sI193
F2.5722752660253718
sI194
F-2.2001939169309317
sI195
F-1.0555661273453403
sI196
F1.7468945916161953
sI197
F1.6513242086322162
sI198
F1.1485600848993904
sI199
F-2.0076732252866067
sI200
F0.62204535018091001
sI201
F0.72572432626918104
sI202
F-0.78190006200135009
sI203
F0.5988733291343582
sI204
F-1.6950494122033462
sI205
F7.2040998346093996
sI206
F1.5977744869764647
sI207
F-1.3876903972072983
sI208
F-0.098353114887260951
sI209
F-0.038748196091136222
sI210
F2.619247453404892
sI211
F-1.8018413601785843
sI212
F6.6060819786487732
sI213
F4.8316839286930495
sI214
F0.93910997513365313
sI215
F5.1153432966129708
sI216
F-4.1193471386276537
sI217
F-0.39856687581086803
sI218
F11.146244981142448
sI219
F0.61673289311643842
sI220
F-0.91429404462372954
sI221
F0.75199376488897851
sI222
F0.97651132058845302
sI223
F9.4307549653985081
sI224
F0.62351231587493672
sI225
F0.68572395895649674
sI226
F-0.65578921622591224
sI227
F8.5440717128719808
sI228
F0.14637288045686869
sI229
F0.2777037848947046
sI230
F1.8703116971087317
sI231
F0.35474832668810752
sI232
F10.229174229428724
sI233
F13.763360963818558
sI234
F11.054865207393316
sI235
F0.9399805169776716
sI236
F9.6770850860902797
sI237
F0.41663257020829736
sI238
F3.1899585492556675
sI239
F-1.2483188778661711
sI240
F0.21951897487498773
sI241
F4.5947319197406475
sI242
F-1.720055805224181
sI243
F6.0884182837939527
sI244
F9.9652806759584571
sI245
F-2.1982271278645964
sI246
F5.8601952161641062
sI247
F-2.4998330170280596
sI248
F4.462281102804468
sI249
F1.7465203206300037
sI250
F1.127550795811274
sI251
F0.82169970840084883
sI252
F11.138809991081779
sI253
F1.8628834290381979
sI254
F-1.1000574412392705
sI255
F0.96408952164527317
sI256
F4.1435680169431706
sI257
F5.8011771920278843
sI258
F-3.161623380726307
sI259
F7.6855366632516473
sI260
F-1.908884593368815
sI261
F0.61638575991912603
sI262
F1.0523839507806922
sI263
F8.4839584927564111
sI264
F-0.93915878847720791
sI265
F0.65059970129714273
sI266
F12.955257352807109
sI267
F0.60832410019825467
sI268
F13.105457515901964
sI269
F0.61112925224787062
sI270
F-1.5047951142878011
sI271
F8.8451351135405609
sI272
F-1.7273979276184503
sI273
F1.5839947148169937
sI274
F-1.4870622122306631
sI275
F-0.2477740840725815
sI276
F-2.0797176059024309
sI277
F0.24984279836728707
sI278
F-2.1926042335782672
sI279
F-3.2522444418162353
sI280
F-1.6039348100423849
sI281
F-0.084751345904231279
sI282
F0.93995489191155368
sI283
F0.092149616327175998
sI284
F-1.1726350185365995
sI285
F-0.47287416239636748
sI286
F-0.77876050498690841
sI287
F-3.06454001398866
sI288
F1.0980414603015065
sI289
F1.2429514972484554
sI290
F4.1448651424486878
sI291
F-1.0812450723543288
sI292
F0.35942568221940974
sI293
F0.034370185116125107
sI294
F1.238660223800756
sI295
F0.88013047884586371
sI296
F8.0509868386146195
sI297
F-1.416142688559292
sI298
F-1.1015676848383
sI299
F0.96776035643764491
sI300
F-1.6708448447899045
sI301
F0.66710884615904131
sI302
F1.1172760811438494
sI303
F1.2836411941558978
sI304
F-1.5799662272468877
sI305
F-1.6863358386888745
sI306
F-3.5608859951739733
sI307
F-0.50070875917415236
sI308
F-1.1667825464187418
sI309
F0.81825938684890076
sI310
F-1.1771195683562254
sI311
F-3.0847019391814507
sI312
F-0.34339702564041286
sI313
F7.732518745050335
sI314
F0.77122160093536163
sI315
F-1.9086220106986698
sI316
F0.8377544113286417
sI317
F-1.9621824453261816
sI318
F0.39805308986318533
sI319
F-3.7110274017447988
sI320
F6.7762653825186048
sI321
F2.8979128390384759
sI322
F-1.4407237485463442
sI323
F1.0826563199510462
sI324
F-0.84279509359068161
sI325
F6.8460971298590252
sI326
F18.910230128769079
sI327
F-0.68628265240018571
sI328
F-6.7762976335063723
sI329
F-1.7013916973378569
sI330
F9.4605914589323188
sI331
F0.14027944349051946
sI332
F-2.5178945368475292
sI333
F9.5942872975209816
sI334
F4.9612694048082364
sI335
F7.8153541672899527
sI336
F-2.2156673715304498
sI337
F4.2652180123056675
sI338
F0.029002628857830004
sI339
F-1.9262461895773519
sI340
F11.299890960617304
sI341
F-2.2601125160123905
sI342
F8.7960522433317134
sI343
F8.3472865828202032
sI344
F6.318469842958784
sI345
F-3.0930905991082014
sI346
F6.2520590855568923
sI347
F1.1049497637585732
sI348
F4.0602025044365542
sI349
F0.86881617099014274
sI350
F-3.59262847589362
sI351
F11.996174260348667
sI352
F4.043854892512706
sI353
F-1.1082637310719585
sI354
F3.9918499708299837
sI355
F-0.48995046019976929
sI356
F3.0315365237368201
sI357
F-1.2504492911527985
sI358
F8.8166074527204881
sI359
F-2.1056644112076421
sI360
F-1.8429741454908211
sI361
F-2.7911443006469572
sI362
F12.451415109889442
sI363
F9.0379017127048371
sI364
F4.9971418064190569
sI365
F7.292826461363159
sI366
F-1.862778796301475
sI367
F1.0046667282289476
sI368
F-2.8037721016350847
sI369
F-0.92590183722894892
sI370
F0.017329482728943191
sI371
F7.706895606635177
sI372
F-2.4388759461515042
sI373
F5.1478458794727233
sI374
F1.0719304852635734
sI375
F-1.0569857032099028
sI376
F0.78924136703384029
sI377
F-1.3780785797625272
sI378
F-0.88340158997200202
sI379
F10.505377493034274
sI380
F14.986256615057538
sI381
F12.403599898353868
sI382
F11.716024115873289
sI383
F10.259942258275796
sI384
F-4.8079816236265343
sI385
F-3.8087839827525567
sI386
F0.1372860429065037
sI387
F-3.6188867370336864
sI388
F1.1712761628816839
sI389
F8.4350853992982433
sI390
F-1.5198079881466944
sI391
F-2.8721104744547929
sI392
F6.0937445824553746
sI393
F-0.47781357415032666
sI394
F0.78642423860903232
sI395
F1.985430027551379
sI396
F7.3776760064900015
sI397
F9.2337018323125761
sI398
F11.968572335654173
sI399
F-3.8994720106901228
sI400
F9.0571889676273845
sI401
F0.77938562961363722
sI402
F0.32707155831865897
sI403
F-2.9982891101159099
sI404
F5.7723601220866279
sI405
F8.6982521525055958
sI406
F2.3349039145087049
sI407
F0.39555863150189996
sI408
F-0.61983200653691384
sI409
F-1.8525583767314924
sI410
F4.0554188055448472
sI411
F11.59184642335514
sI412
F9.819093139049496
sI413
F10.040984778267582
sI414
F10.782340687816763
sI415
F8.2889793427490517
sI416
F0.88223199778523753
sI417
F-5.3800344625186147
sI418
F-2.8204624515272734
sI419
F9.7707553380250474
sI420
F7.0426242388825901
sI421
F-1.2696092522186184
sI422
F8.6909366334076381
sI423
F-2.3362083860026042
sI424
F-0.34604594949564671
sI425
F-0.93188376309907639
sI426
F2.3166765460240883
sI427
F6.2652247820366069
sI428
F6.0719012602149132
sI429
F-1.1180272386441938
sI430
F4.0012229403991109
sI431
F-2.7500425071966328
sI432
F-2.0326192640166347
sI433
F0.1792420412500606
sI434
F0.53516108314050115
sI435
F5.5348950825182222
sI436
F8.9319985657380165
sI437
F-2.7413321362419252
sI438
F-2.0945500334375451
sI439
F5.9770473655928784
sI440
F-1.7628857897047965
sI441
F0.69089909561151597
sI442
F-2.5384120362065223
sI443
F-6.8681349987861982
sI444
F21.164295685016128
sI445
F8.7100098057136641
sI446
F3.4537313851012854
sI447
F-3.7642499533028237
sI448
F17.167826717489646
sI449
F7.0542881649666427
sI450
F1.8280214672067281
sI451
F0.48379414552328459
sI452
F7.9683253154609606
sI453
F0.28841994790903502
sI454
F-0.95913755874651496
sI455
F0.77336225292479721
sI456
F-1.3604763417840768
sI457
F1.4257251158429529
sI458
F2.9194083018374162
sI459
F-1.8003758598923723
sI460
F-8.2417659158323744
sI461
F2.5839992686962265
sI462
F-1.4676521407927048
sI463
F9.1328824364990346
sI464
F3.4148308565966454
sI465
F-1.2203810453157411
sI466
F-1.1027002645443389
sI467
F9.6528348211244932
sI468
F-3.396734674961273
sI469
F-1.4714720941276234
sI470
F0.76595412439301302
sI471
F5.9881239447822701
sI472
F7.2585180308343205
sI473
F-5.3700927850706037
sI474
F12.993449891697992
sI475
F-1.89618027581768
sI476
F-3.299591830818021
sI477
F6.6643387127793607
sI478
F-1.627841117654393
sI479
F-1.5628175841557272
sI480
F1.6453210905551972
sI481
F-0.20477902520159841
sI482
F-2.5285117628876019
sI483
F-2.9262282731194746
sI484
F-2.2936248016329355
sI485
F-0.96623904564915897
sI486
F5.3286130943144183
sI487
F2.8506080795894704
sI488
F-1.5938716335113297
sI489
F-0.86466090107866744
sI490
F-4.2877554420248485
sI491
F-2.4552948879278986
sI492
F6.0498602307164813
sI493
F-2.459787535223775
sI494
F9.9051630671986786
sI495
F-1.6126490481182598
sI496
F2.4365822578489436
sI497
F-1.3520813702629209
sI498
F-1.1943629500585189
sI499
F7.4992708232523126
sI500
F-0.94728570137195867
sI501
F-4.4336576400124432
sI502
F3.15890475969658
sI503
F-3.9190656843318852
sI504
F-1.3973339631510333
sI505
F4.0053573523536139
sI506
F4.2048421861038729
sI507
F5.5285797621637691
sI508
F13.076102011513994
sI509
F-1.844626173322534
sI510
F-0.20347812263193266
sI511
F2.7955118021146257
sI512
F8.6062811635682444
sI513
F-2.4173475808079221
sI514
F4.0095353373810587
sI515
F2.8910584969456661
sI516
F5.8060054654324578
sI517
F-0.67158575383743191
sI518
F6.2126756777119585
sI519
F5.4482135784527683
sI520
F-1.445871820665058
sI521
F0.72366405622332408
sI522
F-0.54469149210404311
sI523
F7.7505496302500125
sI524
F-3.7485083384199367
sI525
F-1.1635688002928211
sI526
F-2.9578634228951319
sI527
F0.06038077195019742
sI528
F-2.7745977140378395
sI529
F-1.2120287577005104
sI530
F-0.81755291784128126
sI531
F-3.2301152590657107
sI532
F3.7508982118814185
sI533
F11.504232292195979
sI534
F8.1164148044579782
sI535
F-3.9044280244789844
sI536
F3.2540725569642861
sI537
F2.7139057930728958
sI538
F6.1674387814662985
sI539
F4.9007977620349514
sI540
F9.1775361606350394
sI541
F3.1404928598880075
sI542
F-1.2590992347012726
sI543
F0.12219098669695683
sI544
F0.26833230634976246
sI545
F4.0558812365838905
sI546
F5.2510865879837691
sI547
F2.9673416642879404
sI548
F-2.195014232413433
sI549
F7.8308721231834815
sI550
F-2.6592550279509712
sI551
F-2.4005711963458669
sI552
F-1.8683770729347087
sI553
F-3.1875177009624709
sI554
F6.9036964602845554
sI555
F7.4005341984044968
sI556
F-1.7835379919598324
sI557
F-0.8323431359812643
sI558
F10.392800803756995
sI559
F-3.2971074850828783
sI560
F-3.7170207936630852
sI561
F14.928266263146368
sI562
F1.5017807515873622
sI563
F5.2697952612228187
sI564
F5.0585448504577073
sI565
F2.2574250036083958
sI566
F-4.1703893652050992
sI567
F-3.4566570394792171
sI568
F-2.9267803644828891
sI569
F5.0951858041991365
sI570
F-2.1144069934905865
sI571
F6.2729261863214942
sI572
F1.439390121591182
sI573
F-0.85474956529396451
sI574
F1.7634401323606612
sI575
F1.3513902922238108
sI576
F0.041519597839547728
sI577
F7.4397616158214417
sI578
F3.7560798368596311
sI579
F4.7554687721064672
sI580
F0.78843319593910444
sI581
F-3.3264677531247573
sI582
F-1.8812174107749735
sI583
F-0.19283797677435022
sI584
F13.771547562840487
sI585
F8.9801852436951464
sI586
F4.9017545712184516
sI587
F9.4224382845652848
sI588
F0.67838004960249876
sI589
F4.4138004091728655
sI590
F7.3261831162209932
sI591
F-4.0980443182943187
sI592
F-1.1374803611912334
sI593
F-2.6895779017394528
sI594
F-0.48641641903217359
sI595
F-1.5699218506214194
sI596
F0.36370167205099113
sI597
F7.1819225419600601
sI598
F-3.8346819043482361
sI599
F2.995030134244681
sI600
F-0.11003465492369902
sI601
F1.5690325500674618
sI602
F-4.0430668633423146
sI603
F-1.6009226076636098
sI604
F5.060810267842661
sI605
F-1.0039980473402448
sI606
F4.1949936831965706
sI607
F-2.2475582857107623
sI608
F-2.4874121359113843
sI609
F7.8116696530190239
sI610
F5.2495538153105592
sI611
F-0.96415196940545567
sI612
F-5.081655973036451
sI613
F-1.173363463767366
sI614
F7.7278930918822777
sI615
F-1.5076925489498016
sI616
F7.0820631730785166
sI617
F-6.7640134765949371
sI618
F1.3922284042928887
sI619
F2.3668834429810328
sI620
F4.0438903204504006
sI621
F2.0386504840431696
sI622
F-1.7026624334436367
sI623
F-2.4757831911615007
sI624
F8.2103190568935975
sI625
F0.13165866969731255
sI626
F-0.52896112877673751
sI627
F4.2357236854616565
sI628
F0.37825840233667041
sI629
F-2.0678846110950104
sI630
F-1.1257890305188241
sI631
F-2.5186815686860724
sI632
F2.5553897252530753
sI633
F8.9881556905377238
sI634
F-2.589016159346337
sI635
F-1.8411472351498963
sI636
F-0.95914587967565623
sI637
F-0.97491173099177342
sI638
F8.3321602877797449
sI639
F-3.5302570359218839
sI640
F5.0808697279374817
sI641
F-2.4746200791095561
sI642
F-2.2335292095166297
sI643
F3.180495655034024
sI644
F-2.4656321477656986
sI645
F6.3211543657081668
sI646
F4.3166771138956896
sI647
F6.598965507597951
sI648
F-4.1983968787676682
sI649
F-2.2452601935375114
sI650
F5.1904161971506895
sI651
F5.2419497082290185
sI652
F-0.46943187109238593
sI653
F6.6485523568039735
sI654
F-3.8406260089744517
sI655
F-3.9401228577934777
sI656
F6.7471904866929933
sI657
F-1.8983002946733682
sI658
F-2.2758981555361881
sI659
F1.8867972386407015
sI660
F8.344641231843017
sI661
F-3.124714928609948
sI662
F-3.16829099031919
sI663
F-7.9350892958626016
sI664
F4.5025900185880019
sI665
F2.8610697914580454
sI666
F-2.2660154021956762
sI667
F3.9010298699182737
sI668
F-3.6486513561045086
sI669
F5.7212790285949957
sI670
F0.70862006783444453
sI671
F-2.7166012577067855
sI672
F-1.9601061911989408
sI673
F0.32242685229937118
sI674
F-0.48329917776391174
sI675
F2.933464478392712
sI676
F8.1326176801063568
sI677
F8.9640281426120758
sI678
F6.9819283993607675
sI679
F-4.9722003743312637
sI680
F-4.1082369919238149
sI681
F4.1523463405482941
sI682
F5.4479710196036271
sI683
F7.7307415313359602
sI684
F-1.9680675433226851
sI685
F17.90190461437092
sI686
F4.3694050569058236
sI687
F-3.5431857647345568
sI688
F5.9674129345406941
sI689
F-2.9453539836392713
sI690
F-1.2286732953987505
sI691
F-4.2324343794661354
sI692
F0.4783553440306223
sI693
F0.18915158446591729
sI694
F-0.87649309090999949
sI695
F1.4533647550352518
sI696
F0.75350696405281248
sI697
F-4.7134330931376756
sI698
F4.527551193220364
sI699
F-0.35709173370332881
sI700
F0.1253002933540639
sI701
F-3.0001146691619436
sI702
F-4.1462314044069108
sI703
F4.5086314607186893
sI704
F-3.317944788836237
sI705
F11.307466781778007
sI706
F-2.532943536723514
sI707
F7.2063288455204306
sI708
F3.1725755305900938
sI709
F-4.2467823568197742
sI710
F-4.1724892266046281
sI711
F6.7544458505498914
sI712
F-3.8314486500569007
sI713
F-3.3594848180518637
sI714
F1.0792027502889052
sI715
F-2.5096039396862873
sI716
F2.9411964355361322
sI717
F-2.4802396769328992
sI718
F8.9275800440723856
sI719
F10.856357832298066
sI720
F-5.474725696366435
sI721
F-2.6431858492389955
sI722
F0.070636729758430938
sI723
F3.932419085910893
sI724
F4.2215039290634593
sI725
F5.3095332141403393
sI726
F21.189758521351415
sI727
F5.2043204224068864
sI728
F3.005584340928336
sI729
F3.2338167174616634
sI730
F0.56767245603997996
sI731
F21.232823275770357
sI732
F-2.1939964436748971
sI733
F-1.0521669746617075
sI734
F4.9000822790833825
sI735
F-3.2407700413509017
sI736
F8.2010712476078957
sI737
F1.933059567126036
sI738
F3.5171407107058785
sI739
F1.3016115901736853
sI740
F-5.1364421265632103
sI741
F-2.5363868866560892
sI742
F-1.0669518404288016
sI743
F3.1058104642528628
sI744
F1.4703785052211096
sI745
F-3.0490129077765946
sI746
F-0.9578133093945107
sI747
F4.050341398510974
sI748
F0.91359921906037833
sI749
F-4.6694818964662312
sI750
F-3.0738890711337916
sI751
F3.8469274411793091
sI752
F-1.6477466520106532
sI753
F8.6605485972703367
sI754
F2.7683907781585804
sI755
F0.91783221686881866
sI756
F-4.4820683003567146
sI757
F3.0236406785495102
sI758
F7.9699331759128
sI759
F2.6897849665031561
sI760
F-2.3370832302512268
sI761
F-3.546046040991726
sI762
F-1.909136616554763
sI763
F4.9186001918190554
sI764
F-3.2894077536599884
sI765
F4.1121417881736955
sI766
F-3.8896745604047256
sI767
F11.90256303762524
sI768
F-4.5126837707284553
sI769
F-2.9157115044241984
sI770
F-4.4645884369392501
sI771
F1.8342590188845547
sI772
F5.5741328734229576
sI773
F8.1288182371341922
sI774
F4.3897150892580568
sI775
F-2.401742220095886
sI776
F2.2830972893285111
sI777
F-2.0407702968632728
sI778
F0.028609751058147559
sI779
F-3.5144731676154111
sI780
F4.849385005002194
sI781
F-1.32625208873384
sI782
F-0.13186617205925799
sI783
F0.63982069141523823
sI784
F0.25049080275824487
sI785
F4.5600416068531056
sI786
F6.1599913546625462
sI787
F6.7193382632726735
sI788
F3.9462039279600205
sI789
F0.97392442826666104
sI790
F2.1589913436940602
sI791
F-1.791306345835471
sI792
F3.6020823435862352
sI793
F3.2042291853614513
sI794
F2.7635070527771184
sI795
F-2.315926102044247
sI796
F16.98263029094641
sI797
F-3.9915449841528021
sI798
F-0.1104085678355613
sI799
F-2.3572803778617377
sI800
F6.3430744949646085
sI801
F2.5846947216314637
sI802
F4.8732492036644892
sI803
F1.4906024462982899
sI804
F4.9271759423714654
sI805
F-6.9964476974211598
sI806
F-1.8507140548127463
sI807
F-4.0362887507933287
sI808
F1.2585905769933605
sI809
F-0.2779076175285331
sI810
F6.3993721401274
sI811
F2.499891683084809
sI812
F-0.17887238308394249
sI813
F5.6831272707416058
sI814
F3.7862659021617078
sI815
F3.2397446644166656
sI816
F3.4738534719164784
sI817
F-4.8962367964127198
sI818
F5.2456725591761
sI819
F-4.6912352812007789
sI820
F4.2292697907390986
sI821
F2.5190844353025987
sI822
F-4.2102926104262801
sI823
F-4.2561025832197146
sI824
F-3.1717124388395508
sI825
F-3.2567303093434505
sI826
F5.852594801067819
sI827
F-1.9954524946983137
sI828
F2.4440578925251648
sI829
F-4.8296924793129214
sI830
F-2.3065349758744587
sI831
F4.8141108682960843
sI832
F-4.9004478195921424
sI833
F5.867403487162635
sI834
F-3.4362883221365292
sI835
F0.31173056883390693
sI836
F5.9067005734738487
sI837
F4.5090613386307599
sI838
F8.029363000392312
sI839
F7.0155589178983844
sI840
F2.3302511721863217
sI841
F8.7522360875521237
sI842
F-1.6750275289276608
sI843
F1.3726252197615403
sI844
F-0.066819522767321615
sI845
F0.1449535580108563
sI846
F7.2751473024216207
sI847
F-4.0933024975363388
sI848
F-3.6106267429769003
sI849
F9.5796666739295695
sI850
F2.8431338381053957
sI851
F3.4964010834180312
sI852
F2.989647152358744
sI853
F-4.3970195109659738
sI854
F2.6089449167695449
sI855
F2.9029447897270364
sI856
F-0.67005407057894129
sI857
F-0.72808103252506928
sI858
F7.8475682368863318
sI859
F-0.078404807660701792
sI860
F-4.6608316817550524
sI861
F2.9850041003743115
sI862
F1.3283989930260418
sI863
F5.3406944131741323
sI864
F5.6835732613678456
sI865
F-2.2658150298206472
sI866
F-4.3946562452532438
sI867
F6.5554157023597082
sI868
F5.8042934663050492
sI869
F4.9514604972378446
sI870
F0.98499935476288769
sI871
F-1.4257516411672286
sI872
F-3.113896976300782
sI873
F5.3420416444719665
sI874
F4.6340637671308214
sI875
F-2.7411576382616074
sI876
F6.3425700542509578
sI877
F-2.5352785578034354
sI878
F-1.7633963556989087
sI879
F5.6745935779800636
sI880
F3.6527300827937053
sI881
F7.1604363515328275
sI882
F-4.2868986135519984
sI883
F-0.69040880867009413
sI884
F1.3945018212617084
sI885
F0.32861441537266778
sI886
F0.15231521555274963
sI887
F5.3147295141207502
sI888
F7.0084425679597331
sI889
F21.301699685551359
sI890
F1.9448173358025791
sI891
F-1.8607219115520168
sI892
F-0.85984779650534549
sI893
F-2.2094335249454176
sI894
F0.91117740498573507
sI895
F-2.053530415359492
sI896
F-2.9973251790922077
sI897
F-4.67649838701983
sI898
F7.0783914273223347
sI899
F3.3421277871421964
sI900
F2.5093122788194799
sI901
F4.5740046064715241
sI902
F0.71570042884476948
sI903
F-4.8717944080764433
sI904
F3.05656159592851
sI905
F12.76577509770971
sI906
F8.0140610045619241
sI907
F0.11935135715111045
sI908
F1.4011133987170599
sI909
F-3.4031551075396598
sI910
F-5.0669278486417131
sI911
F4.1382133558472756
sI912
F-2.1833786746650494
sI913
F3.3016848116322972
sI914
F-0.15878848699838777
sI915
F0.25777785742481152
sI916
F4.490263589801379
sI917
F-0.86342551219286445
sI918
F4.8620996031617318
sI919
F-2.4338088940413813
sI920
F-3.9057016338885902
sI921
F-2.5934241949084926
sI922
F2.5230667875352868
sI923
F6.9799583777080771
sI924
F2.9069842802838641
sI925
F-3.2573626402445717
sI926
F2.2027460608326788
sI927
F8.676224932851607
sI928
F-5.0034909796908602
sI929
F-5.271774866231504
sI930
F4.4957835761530562
sI931
F-4.4091204584579069
sI932
F5.5339456409401597
sI933
F-1.7125638491082746
sI934
F-4.6647720158052408
sI935
F3.786950809732418
sI936
F7.7537852207072415
sI937
F13.434806171958762
sI938
F-5.6835932247090613
sI939
F7.2182067424177712
sI940
F-4.595573526409594
sI941
F-4.3874434028001632
sI942
F4.7941566635277395
sI943
F0.041668826421913607
sI944
F-2.9250483254461779
sI945
F-3.2933830502395995
sI946
F-2.2686860372049784
sI947
F3.8214079912525305
sI948
F15.687545820328303
sI949
F-2.1833544307803043
sI950
F0.62923665803148854
sI951
F-0.082792837489793047
sI952
F0.50082266080566784
sI953
F-4.9906257777863416
sI954
F9.6211595470863074
sI955
F7.2917389167212416
sI956
F-2.5389564798692517
sI957
F0.63475993768885441
sI958
F-4.489612325144936
sI959
F0.78352965974208555
sI960
F5.8752477497016038
sI961
F-3.4097130517657925
sI962
F5.7685353660839924
sI963
F-4.0838334453971719
sI964
F4.1848807852561123
sI965
F7.6603468742992513
sI966
F0.69620829357565928
sI967
F-3.2131005055554063
sI968
F-0.2464262071229415
sI969
F2.6665478637664846
sI970
F-1.5230260208541182
sI971
F-5.2811142817230925
sI972
F5.8499606306590834
sI973
F-3.0462095431048564
sI974
F-3.1273441560100492
sI975
F8.7555653292714801
sI976
F0.45959644939791833
sI977
F-4.9344117669226364
sI978
F-3.8395907156199813
sI979
F-3.0482397570728281
sI980
F-5.9058414577835929
sI981
F-3.9910750230078538
sI982
F-3.5400943539693177
sI983
F-4.0283305878961597
sI984
F8.8451181613706069
sI985
F3.3176732303302758
sI986
F-4.8156987209950941
sI987
F9.8292954595794448
sI988
F-2.9418833011495842
sI989
F3.3116191642782162
sI990
F2.3878614404902825
sI991
F-3.0783322954681687
sI992
F1.9920951016004311
sI993
F-4.0647186609780706
sI994
F-4.3184159233041592
sI995
F-1.9179292492676439
sI996
F0.90062107303529881
sI997
F-4.6045587835409796
sI998
F0.27239738004082836
sI999
F4.6318488919632168
sI1000
F4.3308082190794694
s.