(dp1
I0
F-0.49980031391155677
sI1
F5.0500211388343148
sI2
F5.1113368033002722
sI3
F5.1671424055001385
sI4
F5.715741474155366
sI5
F5.4312515155280376
sI6
F5.5658823567416782
sI7
F5.945450363212613
sI8
F20.512463178760665
sI9
F4.0365596829575114
sI10
F6.0291397102468824
sI11
F4.0701320033273651
sI12
F3.4644381426348065
sI13
F5.9511069392420035
sI14
F4.3585659907785219
sI15
F17.31343873771446
sI16
F1.3097160092536084
sI17
F13.817857788671784
sI18
F3.4961788237142821
sI19
F12.131917798461117
sI20
F4.3379897580244862
sI21
F1.3722868139164275
sI22
F5.8579157774806374
sI23
F0.22657665071519784
sI24
F1.1025179916432757
sI25
F0.35373461485209123
sI26
F1.7556985005508166
sI27
F4.4496160267031355
sI28
F-2.3663345768595612
sI29
F11.72540776130419
sI30
F-3.1211891629193795
sI31
F0.41360105710315942
sI32
F1.4993253010162118
sI33
F6.8124863907684077
sI34
F1.745029673951823
sI35
F3.4687431792848482
sI36
F0.50292680741608553
sI37
F1.926327042672324
sI38
F3.4318113618403077
sI39
F4.5566703405926949
sI40
F18.702122611961265
sI41
F2.104611930802017
sI42
F0.48662294569809106
sI43
F4.8934069185630138
sI44
F4.8598410619663461
sI45
F-0.31047356696439632
sI46
F3.2940073379449641
sI47
F1.6773574945174063
sI48
F1.4363748050282119
sI49
F4.8866635962159961
sI50
F1.999606361652134
sI51
F-0.19459545554989344
sI52
F0.05435732875739685
sI53
F0.58230618880731733
sI54
F6.5604417603851513
sI55
F9.9379692512451889
sI56
F0.30805875572130414
sI57
F0.98431536700486166
sI58
F-3.2518811713851372
sI59
F5.0679115258415779
sI60
F8.7606808619776171
sI61
F1.9451433820103841
sI62
F0.24790959048218575
sI63
F3.201797781797505
sI64
F-0.33743445288579377
sI65
F1.583262996447913
sI66
F1.200866453391229
sI67
F2.4099550950176161
sI68
F-0.025876444067130855
sI69
F7.3867813469711558
sI70
F0.621099174320773
sI71
F-0.05603656029640014
sI72
F0.19323828864034365
sI73
F4.2913749741185754
sI74
F3.6266646205514501
sI75
F1.2742363187571586
sI76
F0.8773840733878524
sI77
F6.0440320615022385
sI78
F-3.2265857030772311
sI79
F13.375586820624189
sI80
F2.5650646692063246
sI81
F-0.068801577793443869
sI82
F1.8927422393683271
sI83
F0.12981641925424281
sI84
F2.5251859732986084
sI85
F1.4309308006453998
sI86
F0.53970414353535023
sI87
F-0.044250841432793564
sI88
F0.40537177102060085
sI89
F4.1717947560685937
sI90
F3.8263629979453517
sI91
F-0.21722293439659968
sI92
F2.2321793234557559
sI93
F5.5026852567868048
sI94
F-0.22230894005045698
sI95
F8.0095754092308891
sI96
F2.4406120917154901
sI97
F6.5601558131129716
sI98
F2.5312633727671932
sI99
F1.7432876893757188
sI100
F12.785110723017091
sI101
F-3.3769786193266471
sI102
F11.048984031891116
sI103
F1.5258279080197008
sI104
F-0.50652311456752841
sI105
F0.10760321617386293
sI106
F4.1038671472089874
sI107
F0.048407792058919874
sI108
F-0.96033448790386888
sI109
F0.058441760661226638
sI110
F15.457048317134042
sI111
F1.325074406490292
sI112
F0.98963070011004906
sI113
F0.31342940793346141
sI114
F1.2028302296265467
sI115
F0.26667770687067183
sI116
F11.434294009317316
sI117
F0.033960898572818365
sI118
F0.88466642587582456
sI119
F2.4115926868444433
sI120
F7.1041554377189646
sI121
F1.8320292454605012
sI122
F0.47323286383167229
sI123
F-1.9023207683795302
sI124
F9.1870513679701986
sI125
F0.83882048608366677
sI126
F1.7693890273467927
sI127
F-1.4935523986961829
sI128
F2.1244560978704365
sI129
F0.1605507799657877
sI130
F2.4342471461244912
sI131
F0.37910937098315767
sI132
F1.1772204178999583
sI133
F1.2378449717969398
sI134
F0.50028969411915281
sI135
F-1.6710632555918634
sI136
F0.27626288744910443
sI137
F-0.95259792588401737
sI138
F1.2120870328861768
sI139
F6.8347055589839574
sI140
F8.4247779672326697
sI141
F1.9564393890994562
sI142
F5.129189532270706
sI143
F0.84734285773902407
sI144
F-2.2717910168808064
sI145
F0.7012973198923067
sI146
F-0.0058553788042274846
sI147
F1.0423703058712794
sI148
F-0.4428311020630904
sI149
F1.1824106294795698
sI150
F8.0621226832467805
sI151
F1.1744473367305908
sI152
F-0.53986804920523568
sI153
F-3.4081738127772105
sI154
F5.5022978152969149
sI155
F0.24297173617746282
sI156
F0.92701250121767043
sI157
F1.2166299223500294
sI158
F0.6677818581260615
sI159
F8.0784352247882438
sI160
F14.711950086534017
sI161
F0.2649049229751288
sI162
F0.40486744144961939
sI163
F-0.69462817430480062
sI164
F1.0824915454746185
sI165
F1.818575333446625
sI166
F-1.1850567377165575
sI167
F-2.3122274636968729
sI168
F1.3245392444125077
sI169
F4.6068976498504233
sI170
F2.126813208710586
sI171
F-0.38434338612366847
sI172
F0.42391449957723104
sI173
F1.2996893996310828
sI174
F-3.0135342901572342
sI175
F0.28379064311200253
sI176
F-1.7075523152160423
sI177
F7.8530975445770412
sI178
F15.000604788045584
sI179
F-0.63211995802896581
sI180
F0.36019790614467251
sI181
F-0.5386233406574954
sI182
F-1.089366769991746
sI183
F0.60700871720960059
sI184
F-0.16329206477172065
sI185
F0.39460370498842767
sI186
F1.1036499003045428
sI187
F1.5442479983791522
sI188
F-0.78029002785204593
sI189
F2.4399608810418618
sI190
F0.11572072283537604
sI191
F-0.14033921178384201
sI192
F6.6600265207358271
sI193
F2.5414700852511611
sI194
F-2.2098761346106528
sI195
F-1.1893320264861051
sI196
F-1.2834365878840694
sI197
F1.6134676083776549
sI198
F1.1351293297527478
sI199
F-2.0992091957080588
sI200
F0.57788114546378022
sI201
F0.60819321604979404
sI202
F-0.85600981036856361
sI203
F0.49564667043063082
sI204
F-1.8533647940831228
sI205
F7.2784826563008114
sI206
F1.564911452758456
sI207
F-1.4342250243060803
sI208
F-0.15749464976179706
sI209
F-0.4575108125798204
sI210
F2.5965854012874141
sI211
F-1.8040800716925585
sI212
F6.6443067269363789
sI213
F4.866613686528118
sI214
F0.90563731621143617
sI215
F5.0959100003559499
sI216
F-4.1327272371771384
sI217
F-0.43576575722157695
sI218
F11.481788606144743
sI219
F0.57362933099591906
sI220
F-0.94865268775047618
sI221
F0.67186463174716149
sI222
F0.93030783940254569
sI223
F9.3942578803982713
sI224
F0.59039057667971928
sI225
F0.57924674016923383
sI226
F-0.71762190345706056
sI227
F8.593325758710737
sI228
F0.069255402016771939
sI229
F0.24320027057173021
sI230
F1.8469183423438214
sI231
F0.31802691639957725
sI232
F10.238905924245358
sI233
F13.817387426095394
sI234
F11.091286315576014
sI235
F0.88605331602385817
sI236
F9.910491365688582
sI237
F0.46383618242169078
sI238
F3.2249051527615791
sI239
F-1.4020732324101965
sI240
F0.16179918061989973
sI241
F4.6080585512025545
sI242
F-1.8861903404891267
sI243
F6.1771364229141881
sI244
F10.259217788894906
sI245
F-2.2608517522103089
sI246
F0.59174931996528279
sI247
F-2.5498955060640265
sI248
F4.5580730075176712
sI249
F1.7106324390684957
sI250
F1.1314236187411577
sI251
F0.77086936998431188
sI252
F11.206215956679308
sI253
F1.8346910407426638
sI254
F-1.1831800617822479
sI255
F0.91457133658086232
sI256
F4.2500237985911724
sI257
F5.8025564443825894
sI258
F-3.2441143884138857
sI259
F7.7167163167235282
sI260
F-1.9488291536833078
sI261
F0.5396759336972563
sI262
F1.0140002896107934
sI263
F1.3304751375075723
sI264
F-1.0050796361208256
sI265
F0.54601795321662738
sI266
F13.035962538538096
sI267
F0.57604837344224968
sI268
F13.302977977757475
sI269
F0.58011766159513201
sI270
F-1.5399800742777421
sI271
F8.9373496106229808
sI272
F-1.7658992319902636
sI273
F1.5703546378277942
sI274
F-1.5230075026820851
sI275
F-0.28375455147550621
sI276
F-2.1227744266735744
sI277
F0.21660701681672023
sI278
F-2.2431776726548209
sI279
F-3.3353578764869312
sI280
F-1.7325101545076116
sI281
F-0.13665881743719943
sI282
F0.90929210293850637
sI283
F0.057242733269126767
sI284
F-1.310780125598602
sI285
F-0.53665809569408207
sI286
F-0.82356660317461738
sI287
F-3.1528807509417041
sI288
F1.0704401115424362
sI289
F1.2206916577736848
sI290
F4.2113562351149394
sI291
F-1.1193137290786161
sI292
F0.3049037277995108
sI293
F-0.038371979701514292
sI294
F1.2519389153198954
sI295
F0.81892897598608538
sI296
F0.41283937134148552
sI297
F-1.547961836377965
sI298
F-1.1373549958058922
sI299
F1.0213830706692697
sI300
F-1.7567752188550827
sI301
F0.7122121763132423
sI302
F1.0686847166651647
sI303
F1.2458361672855007
sI304
F-1.6179518311793419
sI305
F-1.7206576067755979
sI306
F-3.5956559644669746
sI307
F-0.88490632887149356
sI308
F-1.3041497274492446
sI309
F0.78080163004395953
sI310
F-1.218562064420933
sI311
F-3.110687114585339
sI312
F-0.40174652373898656
sI313
F-0.41260540857477501
sI314
F0.74219417132598142
sI315
F-1.950126711763331
sI316
F0.79682434633284061
sI317
F-2.0137354643185432
sI318
F0.36831239010233308
sI319
F-3.827456165334155
sI320
F6.8257864617473265
sI321
F2.8245382548762219
sI322
F-1.477771149002673
sI323
F1.0490454194983618
sI324
F-0.88161117735577665
sI325
F6.8031290823795727
sI326
F20.432665516834337
sI327
F-0.80830333113140718
sI328
F-6.9775457926248903
sI329
F-1.7504925561329978
sI330
F9.4250206347317658
sI331
F0.10914010495911075
sI332
F-2.5519194891207606
sI333
F9.7253668905868551
sI334
F5.0019582862867882
sI335
F7.8712150687667473
sI336
F-2.2729987159393259
sI337
F-1.7836623379416752
sI338
F-0.030912652775315408
sI339
F-2.0429832703638979
sI340
F11.546801982968837
sI341
F-2.3442783411691117
sI342
F8.7644702538297601
sI343
F0.92420759090684079
sI344
F6.5177794972071039
sI345
F-3.1334862756078925
sI346
F6.3173478121989977
sI347
F1.0853735140030869
sI348
F4.0531607395564011
sI349
F0.8455298065041994
sI350
F-3.6524327696062349
sI351
F12.094481297054571
sI352
F4.0932285210111177
sI353
F-1.1441775250778203
sI354
F3.9744335738229282
sI355
F-0.52195621514331592
sI356
F3.070508617763684
sI357
F-1.364039358803633
sI358
F8.8226073739913353
sI359
F-2.1399434476638675
sI360
F-1.8934576601573214
sI361
F-2.8750971571223367
sI362
F12.541036620356412
sI363
F9.3177504572741405
sI364
F-1.3974143697358894
sI365
F7.2653346846000604
sI366
F-1.921678932020435
sI367
F1.020899614726801
sI368
F-2.9186647404422068
sI369
F-0.96031809481564068
sI370
F-0.020187453768234498
sI371
F8.9355814522980701
sI372
F-2.5530690857897067
sI373
F-0.42168456656936648
sI374
F1.0415700594391053
sI375
F-1.0927735241657102
sI376
F0.747119905676362
sI377
F-1.4882011317238737
sI378
F-0.92740868060605752
sI379
F10.792919416991996
sI380
F15.148990249413064
sI381
F12.373798005365245
sI382
F11.779184811379221
sI383
F10.325635812749494
sI384
F-4.8144846872654368
sI385
F-3.927896515293118
sI386
F0.090064567367804216
sI387
F-3.657952059672005
sI388
F1.1490598073119243
sI389
F0.83620020024601427
sI390
F-1.6011015521445593
sI391
F-2.9169988865207088
sI392
F6.0929762155951268
sI393
F-0.52302978155745006
sI394
F0.76141734860460808
sI395
F1.1434145067906663
sI396
F7.41341744077359
sI397
F9.2175389866549367
sI398
F12.305308687335266
sI399
F-3.9519247176277137
sI400
F9.1086306951064913
sI401
F0.75268299732577137
sI402
F0.29936653906918576
sI403
F-3.0614891922263121
sI404
F5.7628594070584409
sI405
F8.7522812823209755
sI406
F-0.70226343396347168
sI407
F0.38937800265744293
sI408
F-0.68177444139108445
sI409
F-1.891066754992063
sI410
F4.0587841524186823
sI411
F11.975387904640829
sI412
F9.9449730542897861
sI413
F10.048775863370814
sI414
F10.82486723030194
sI415
F0.69168657247838183
sI416
F0.85174934276591863
sI417
F-5.4697493889946314
sI418
F-2.8540970950390872
sI419
F10.001609479093709
sI420
F7.0568041688909879
sI421
F-1.4002067942686303
sI422
F8.735784627268643
sI423
F-2.3718109313618143
sI424
F-0.3951699089312779
sI425
F-0.99916082552980789
sI426
F-0.64730565877872603
sI427
F2.9408365649826358
sI428
F6.1023702449973518
sI429
F-1.1538406347703294
sI430
F4.0742490277545631
sI431
F-2.8150665582743004
sI432
F-2.0683334651010128
sI433
F-0.21312558012311822
sI434
F0.51420388005731432
sI435
F5.5718194681367459
sI436
F8.9309873591514055
sI437
F-2.7771813034704804
sI438
F-2.1348985946486296
sI439
F5.9702644773908595
sI440
F-1.8390618117282598
sI441
F-0.27503659050299678
sI442
F-2.5790683201110429
sI443
F-7.044714715943897
sI444
F35.759304121327752
sI445
F8.7470579030237072
sI446
F3.5205307772369467
sI447
F-3.8459247807294581
sI448
F17.231490927533905
sI449
F7.0759786781736276
sI450
F1.7300754760589045
sI451
F0.46427615982720294
sI452
F8.0111590161151085
sI453
F-0.09997551165184948
sI454
F-1.0104171827891619
sI455
F0.75128027172173439
sI456
F-1.4697682608082339
sI457
F1.1679741063181233
sI458
F2.9077861165415122
sI459
F-1.8363366166032922
sI460
F-8.8297853872882719
sI461
F2.5773135768295843
sI462
F-1.5337555481998519
sI463
F9.1352995442991816
sI464
F3.452336634967561
sI465
F-1.255085080610896
sI466
F-1.2286748255285262
sI467
F9.644836850575949
sI468
F-3.4383590077123909
sI469
F-1.6329140679459142
sI470
F0.74076925762901435
sI471
F6.0189876189721518
sI472
F7.2969009415776132
sI473
F-5.4583080913871163
sI474
F13.012427993575848
sI475
F-1.9530858503512007
sI476
F-3.3324718823440769
sI477
F1.4809032973907197
sI478
F-1.6622369760481845
sI479
F-1.5410165303082959
sI480
F1.7013892541398494
sI481
F-0.23060653558164557
sI482
F-2.5808669509582112
sI483
F-2.9693466373739277
sI484
F-2.3345889344770852
sI485
F-0.99823315620602582
sI486
F-0.58442382963945327
sI487
F-0.49392690350506374
sI488
F-1.6259087383908595
sI489
F-0.89155060369382166
sI490
F-4.3287450359697646
sI491
F-2.4953364318591786
sI492
F6.0069620033581135
sI493
F-2.4954634554063668
sI494
F9.909163891476112
sI495
F-1.6678717811272756
sI496
F2.42224344521372
sI497
F-1.3851244487585337
sI498
F-1.2334097400975033
sI499
F7.5667478228722356
sI500
F-1.0725422213224212
sI501
F-4.462697247117573
sI502
F3.1553422826093396
sI503
F-3.9504322629506978
sI504
F-1.4303741777849401
sI505
F3.9611921198633393
sI506
F4.2425542328178318
sI507
F5.5104920930879633
sI508
F13.369373825047356
sI509
F-1.8790557053970467
sI510
F-0.2355958028604821
sI511
F2.7943109086571498
sI512
F8.66511434162474
sI513
F-2.4522256394893471
sI514
F4.0015345832888487
sI515
F2.9162462977072607
sI516
F5.7639568265921755
sI517
F-0.70579353424563607
sI518
F6.4247782452076168
sI519
F5.4065050335201503
sI520
F-1.4749665321630134
sI521
F-0.2632141364832945
sI522
F-0.56500320133134441
sI523
F7.7378167316429183
sI524
F-3.7862013905359815
sI525
F-1.1931908939873805
sI526
F-2.9983065489693397
sI527
F0.028669954686046495
sI528
F-2.8476690286882729
sI529
F-1.3399047456939863
sI530
F-0.85032366721874642
sI531
F-3.26402382807197
sI532
F0.77438615282056977
sI533
F11.480137214463625
sI534
F0.23714298812695755
sI535
F-3.9449069480700771
sI536
F0.39270451245032234
sI537
F2.6960780366857628
sI538
F6.2991512764162305
sI539
F4.8569389857658756
sI540
F9.1692843036280145
sI541
F3.1218280176846531
sI542
F-1.3302034355481487
sI543
F0.098764163214038803
sI544
F-2.6228532887324123
sI545
F4.0611502455301798
sI546
F5.1347311586149429
sI547
F3.0275274541452895
sI548
F-2.2287384856364296
sI549
F4.9797103810529348
sI550
F-2.7018865847584506
sI551
F-2.4388507111317788
sI552
F-1.9504986913567315
sI553
F-3.226748665714374
sI554
F6.8823543090102008
sI555
F7.6871142339202478
sI556
F-1.8199392792164408
sI557
F-0.85331324548354814
sI558
F10.473805278679141
sI559
F-3.3320418422317202
sI560
F-3.7780075866726888
sI561
F14.907102634836896
sI562
F1.4937230423763674
sI563
F5.3160358147076057
sI564
F5.1184171638431035
sI565
F2.2723732786058237
sI566
F-4.2049644763941769
sI567
F-3.4905464906184873
sI568
F-2.9623610497277317
sI569
F5.0807479332273484
sI570
F-2.1673188827500853
sI571
F6.2574266763421473
sI572
F1.4776654581983744
sI573
F-0.88375694424267515
sI574
F1.7265930265885867
sI575
F1.3090731893549252
sI576
F-0.18670082910898156
sI577
F7.4221442721047861
sI578
F3.7859642312410529
sI579
F4.8595427746290687
sI580
F0.49944346082326607
sI581
F-3.3618756373155332
sI582
F-1.914178635305432
sI583
F-0.22327135841709378
sI584
F14.428511784577498
sI585
F9.0096395855401674
sI586
F4.8586483161702052
sI587
F9.7206311279388693
sI588
F0.57723987292447543
sI589
F4.4189827245431896
sI590
F7.2830373576739502
sI591
F-4.1388337348091238
sI592
F-1.185783203179871
sI593
F-2.726481829054535
sI594
F-0.50725628987990934
sI595
F-1.6009034275445932
sI596
F0.0087081578615380018
sI597
F7.1933638258930976
sI598
F-3.8701005384102229
sI599
F3.0279041078443649
sI600
F-0.13201766453404851
sI601
F-1.4422974706599963
sI602
F-4.0980981540573174
sI603
F-1.6283148419443583
sI604
F-0.95295479504625114
sI605
F-1.031275773817991
sI606
F4.214631019781379
sI607
F-2.3249576483409511
sI608
F-2.5183504505875378
sI609
F8.0007020226437895
sI610
F5.1399402582845273
sI611
F-0.98669594389974513
sI612
F-5.1694937096498537
sI613
F-1.2054767471840879
sI614
F7.7131955837726025
sI615
F-1.5499050068434812
sI616
F7.1400133415975118
sI617
F-6.7733705057833742
sI618
F0.25403870805739315
sI619
F2.3406451864827869
sI620
F4.0475063877707074
sI621
F2.0144000571977365
sI622
F-1.7309375352695309
sI623
F-2.461340779604333
sI624
F8.2366682664775439
sI625
F-0.10666128501206096
sI626
F-0.56055313285236519
sI627
F-0.82695580501402599
sI628
F0.13865897763185053
sI629
F-2.122624110501742
sI630
F-1.1535303893893021
sI631
F-2.5546989750184741
sI632
F2.6046585371770004
sI633
F9.2423062608346758
sI634
F-2.6233343377862779
sI635
F-1.8869647720615799
sI636
F-0.9725507563174931
sI637
F-0.92421263728956671
sI638
F0.98387329663759981
sI639
F-3.5654052412387474
sI640
F5.072019765843109
sI641
F-2.505930225431702
sI642
F-2.3023697507381549
sI643
F3.1364399840027355
sI644
F-2.4961215806324475
sI645
F6.2947743424613458
sI646
F4.3697491171935621
sI647
F6.7179075623066158
sI648
F-4.2328222535793962
sI649
F-2.2782612177904547
sI650
F0.45633960467881263
sI651
F5.1987684808622898
sI652
F-0.49281528008621045
sI653
F6.6288732786361528
sI654
F-3.8972600443679841
sI655
F-3.9738319599133378
sI656
F6.857328322685543
sI657
F-1.9292049591380396
sI658
F-2.3066042636952222
sI659
F-1.1268447068063061
sI660
F8.5471459739675311
sI661
F-3.1585254988822191
sI662
F-3.2001991704788182
sI663
F-8.3530188010115101
sI664
F4.4953193177627
sI665
F4.1107968919199305
sI666
F-2.3376418764763729
sI667
F3.9171708522205719
sI668
F-3.6833230274530733
sI669
F-0.24577897099556001
sI670
F0.43463379262111923
sI671
F-2.750876243222617
sI672
F-1.9910628280912617
sI673
F-0.052404514143661984
sI674
F-0.50529134638608131
sI675
F2.9322422323492061
sI676
F0.46387238582656298
sI677
F8.9582568595979772
sI678
F6.982202193239381
sI679
F-5.0225111023810092
sI680
F-4.1486385622787312
sI681
F4.1086110253368062
sI682
F5.4240027310898062
sI683
F7.9425475412763493
sI684
F-1.9969611594505734
sI685
F18.996663001665212
sI686
F4.3289520638599814
sI687
F-3.578632281312375
sI688
F0.78418239732420592
sI689
F-2.9797250109486288
sI690
F-1.2617870394596649
sI691
F-4.2676253238783808
sI692
F0.40720704027072063
sI693
F0.17382310019786473
sI694
F-0.89596829733902883
sI695
F1.3298043140227049
sI696
F0.59785255255739322
sI697
F-4.7714835746635931
sI698
F4.5637243069047395
sI699
F-0.36850250719431621
sI700
F-0.86266716161549084
sI701
F-3.0512339752088389
sI702
F-4.1799396258362398
sI703
F-0.66748738266384144
sI704
F-3.3549001367124491
sI705
F11.263635504063947
sI706
F-2.5010854303105372
sI707
F7.1708938729187084
sI708
F2.9829298446672783
sI709
F-4.2827811669827964
sI710
F-4.2061788619951566
sI711
F6.7424869236004179
sI712
F-3.8872571526269315
sI713
F-3.3942253776096978
sI714
F0.87916942350267702
sI715
F-2.5398097550294976
sI716
F2.9346040646938789
sI717
F-2.5118652380433248
sI718
F8.9069689289145124
sI719
F11.058648211562581
sI720
F-5.5332411681643849
sI721
F-2.6756685854444502
sI722
F0.013290746977292045
sI723
F3.9350372436263017
sI724
F4.1810960407186357
sI725
F5.3425437033855809
sI726
F35.782392285259675
sI727
F5.176964496087284
sI728
F2.8936338011663807
sI729
F3.2223346668087007
sI730
F0.33519289639023508
sI731
F35.839653002218157
sI732
F-2.2249474584917914
sI733
F-0.99237167221076383
sI734
F4.8570052938530344
sI735
F-3.274608700243042
sI736
F8.1925120143974191
sI737
F1.929869756747884
sI738
F3.3306033441255725
sI739
F1.2690760967942669
sI740
F-5.1641493836279917
sI741
F-2.5920185621991507
sI742
F-1.0864381606914737
sI743
F3.0789128114969264
sI744
F1.4827373280935747
sI745
F-3.0831559656107235
sI746
F-0.98794831356754731
sI747
F-1.4173322888666924
sI748
F0.0021024274175038826
sI749
F-4.6992663574889182
sI750
F-3.1067083152491684
sI751
F3.8032629256908432
sI752
F-1.6754688596435212
sI753
F8.7440823963485776
sI754
F2.7618290418826348
sI755
F0.95433942118349435
sI756
F-4.5129525934528507
sI757
F2.9971573332634618
sI758
F8.1845326462942545
sI759
F2.6458187024873183
sI760
F-2.367941478829489
sI761
F-3.7203227344866976
sI762
F-1.9348065345715737
sI763
F4.9491031340986531
sI764
F-3.3286603328761233
sI765
F4.150976087965681
sI766
F-3.9250842328525275
sI767
F11.909964814917306
sI768
F-4.5517602132017609
sI769
F-3.0225915800345149
sI770
F-4.5250296419684162
sI771
F1.8103739669035188
sI772
F5.6064560502663854
sI773
F8.1131968099763547
sI774
F4.3891413037424938
sI775
F-2.4282405802956424
sI776
F2.2516274567098957
sI777
F-2.071093290351179
sI778
F-0.01955470167163309
sI779
F-3.5482951498260951
sI780
F4.9621469201745905
sI781
F-1.3786626146089338
sI782
F-0.15884855004241327
sI783
F0.34111473911101386
sI784
F-0.65646672340160839
sI785
F4.5359867666690228
sI786
F6.1295420480040894
sI787
F6.6926191234512205
sI788
F3.9058448209142238
sI789
F0.94742633268781562
sI790
F2.181874748857398
sI791
F-1.8190369276989209
sI792
F3.6117232657112108
sI793
F1.0566809485498729
sI794
F2.7821121782252014
sI795
F-2.3447000496775967
sI796
F17.238576273327105
sI797
F-4.0269533610687311
sI798
F-0.27859339708662789
sI799
F-2.4261906863451372
sI800
F6.3428846692068532
sI801
F2.5784922390932703
sI802
F4.8464418610175111
sI803
F1.4745613320638746
sI804
F4.8998497629246245
sI805
F-7.5373834524702366
sI806
F-1.8784448120613506
sI807
F-4.071693214026137
sI808
F1.2463488823754805
sI809
F-0.48561884988770476
sI810
F6.4105405531096151
sI811
F2.4559743421289895
sI812
F-0.42341831485774506
sI813
F5.7140278969694469
sI814
F0.8147031684048871
sI815
F3.2151923228670345
sI816
F3.6409666571010115
sI817
F-4.927326143535093
sI818
F5.3010972767777895
sI819
F-5.9352601961148013
sI820
F4.3452936371045539
sI821
F2.5131082469241033
sI822
F-4.2472145172538154
sI823
F-4.2932017200615888
sI824
F-3.2092755054962394
sI825
F-3.2895569284099411
sI826
F5.8753590516642573
sI827
F-2.0168737750837362
sI828
F2.4001823622403
sI829
F-4.9259068138090516
sI830
F-2.3344898426642207
sI831
F4.8468432972027324
sI832
F-4.9351753080992289
sI833
F2.3166717310804241
sI834
F-3.4668284160325555
sI835
F0.30012878322727943
sI836
F5.9274317148746212
sI837
F4.4660916422154298
sI838
F4.9457477468356466
sI839
F7.0461891076258434
sI840
F2.3301334645475329
sI841
F8.7317448581394252
sI842
F-1.7005541156475212
sI843
F1.3053013286831487
sI844
F-0.28137467715328235
sI845
F0.10079040135689432
sI846
F7.5140348388601854
sI847
F-5.314464712345929
sI848
F-3.6443988673022067
sI849
F9.5436583175151348
sI850
F-0.15572767243147823
sI851
F3.4528238793946029
sI852
F2.9882210750524605
sI853
F-4.4421728161572007
sI854
F2.5484594983367899
sI855
F-0.068103105578299683
sI856
F-0.79904454660148971
sI857
F-0.71366120022171398
sI858
F7.8225010526269543
sI859
F-0.25692224997956092
sI860
F-4.7075634259781562
sI861
F2.9588817575817599
sI862
F1.4407073923078562
sI863
F5.3967319669606857
sI864
F-0.29379486443202119
sI865
F-2.2843729135223985
sI866
F-4.4306376761893134
sI867
F6.5389398873914866
sI868
F5.7846358678962
sI869
F4.9136345059475879
sI870
F0.84231318476724315
sI871
F-1.4557815373133831
sI872
F-3.1466886284316002
sI873
F5.5384736310874905
sI874
F4.6075613727648612
sI875
F-2.7719121465327392
sI876
F6.3001552822420512
sI877
F-2.6178789319162981
sI878
F-1.793206961841693
sI879
F5.6577494709117904
sI880
F3.6098202059892621
sI881
F7.1182619096086777
sI882
F-4.32227358949961
sI883
F-0.71581381308164094
sI884
F1.3819654405453319
sI885
F0.34582495520649204
sI886
F-0.75028399898596554
sI887
F5.3529748871852867
sI888
F7.1225148155536875
sI889
F35.920270797211288
sI890
F1.9599296439832194
sI891
F-1.8850470126073189
sI892
F-0.97919348822650232
sI893
F-2.3871820914289943
sI894
F-0.025877862089631165
sI895
F-2.0719673279430859
sI896
F-3.028365970388478
sI897
F-4.7822386175325349
sI898
F7.169016085390135
sI899
F3.3638023953626606
sI900
F2.5077468182976563
sI901
F4.5475047608524495
sI902
F0.55629081000364478
sI903
F-4.905405621940317
sI904
F-1.7704759946377688
sI905
F12.720797238086435
sI906
F8.1639965365315401
sI907
F0.062239999836378068
sI908
F0.39648530165853924
sI909
F-3.436171583298063
sI910
F-5.100209065328003
sI911
F4.20444723594093
sI912
F-2.2142888075681109
sI913
F3.2581610003639803
sI914
F-0.53109856081503803
sI915
F-0.65622284013070065
sI916
F-0.67774258567176737
sI917
F-0.857944957709603
sI918
F4.8580828927359638
sI919
F-2.4603619087056048
sI920
F-3.9377331938629601
sI921
F-2.6292428406332053
sI922
F2.5799526575330853
sI923
F6.971950108041141
sI924
F2.8889884875919831
sI925
F-3.2900982911960854
sI926
F2.1970266715407236
sI927
F8.7048294769686585
sI928
F-5.0373347959311046
sI929
F-5.3030511204697515
sI930
F4.4692880279677052
sI931
F-4.444512724746323
sI932
F5.5024804628383333
sI933
F-1.7319552600756314
sI934
F-4.7001242675316632
sI935
F3.773120748720197
sI936
F7.736607199244788
sI937
F14.655041283159855
sI938
F-5.7786777502812621
sI939
F7.2129900497584742
sI940
F-4.6552900468365106
sI941
F-4.4143780973083899
sI942
F4.7901554471819257
sI943
F-0.013818484761162431
sI944
F-2.9558137308367893
sI945
F-3.3269947736021228
sI946
F-2.2962310295783546
sI947
F3.7965432371102521
sI948
F15.66272096506335
sI949
F-2.2205936028949234
sI950
F0.17560289069560131
sI951
F-0.23242304761605936
sI952
F0.35284137516509695
sI953
F-5.0241770309247586
sI954
F9.582563594162167
sI955
F7.2497095436594359
sI956
F-2.5675929560867639
sI957
F0.013802189573794976
sI958
F-4.5249773223155962
sI959
F-0.1283864184388106
sI960
F5.8323675121953888
sI961
F-3.4585762212363163
sI962
F5.7269620020484462
sI963
F-4.1190499045863165
sI964
F4.1597242446304739
sI965
F4.7368291162065557
sI966
F0.67839540617818095
sI967
F-3.2428257608039006
sI968
F-0.46613534974265747
sI969
F2.8141491563130439
sI970
F-1.5449858945688657
sI971
F-5.3135690489547169
sI972
F5.8571010165969497
sI973
F-3.0991006591956749
sI974
F-3.1529664015463359
sI975
F8.7181533756834106
sI976
F-0.19450597334952047
sI977
F-4.9665098683989859
sI978
F-3.8734713751656003
sI979
F-3.0789981948579701
sI980
F-5.9645015921136944
sI981
F-4.0268121061731224
sI982
F-3.5738932690180292
sI983
F-4.0943103459788865
sI984
F8.9624584296865262
sI985
F3.2776602335368583
sI986
F-4.8460677308508764
sI987
F9.8069445289386152
sI988
F-2.9712421271464287
sI989
F3.2716300719517495
sI990
F2.3449382621747548
sI991
F-3.1090887195699013
sI992
F1.9864138841279155
sI993
F-4.100791279907531
sI994
F-4.3684366105344905
sI995
F-1.9373140091303469
sI996
F0.88399716639067716
sI997
F-4.6233213977291463
sI998
F0.052164071148020685
sI999
F4.67781238013474
sI1000
F4.3532397972977428
s.