(dp1
I0
F0.025436227824819468
sI1
F-5.9851363605764858
sI2
F-9.9007128439116254
sI3
F2.5519852095550255
sI4
F14.673815310975947
sI5
F-1.4435855492052685
sI6
F-9.1960042924244352
sI7
F-9.9304480540925582
sI8
F-7.5420874908922819
sI9
F-1.7545437513309254
sI10
F-12.126596105562282
sI11
F-5.9287832136098491
sI12
F-1.203721773938808
sI13
F-8.9094580735703772
sI14
F-7.5946383056529534
sI15
F-1.620299700454858
sI16
F-0.13435968862821479
sI17
F-10.787329176762567
sI18
F-0.11626246707858279
sI19
I0
sI20
F-5.3889560825189751
sI21
F-4.4593376030167198
sI22
F-6.1466023920718387
sI23
F-1.1587805455847264
sI24
F-0.32224664401158298
sI25
F-6.6277632162940385
sI26
F-4.8982881746330245
sI27
F-5.8540894636219756
sI28
I0
sI29
F-2.8325450066371056
sI30
F-3.7130530699939768
sI31
F-9.8043955520705559
sI32
F-4.1763298385837491
sI33
F-8.1159205243337063
sI34
F-7.6228893667619317
sI35
F-9.1880361610911621
sI36
F-3.3369979575777209
sI37
F-7.20871243081206
sI38
F-0.85237264381446565
sI39
F-7.1135001865964451
sI40
F-6.6685295248143248
sI41
F1.2375422383028616
sI42
F-5.2645099043363519
sI43
F-12.511795910083336
sI44
F-3.9139759115811552
sI45
F-10.485695823312604
sI46
F-3.1542206083324786
sI47
F-0.84313229422294711
sI48
F-1.8411052084013466
sI49
F-7.5741381323163051
sI50
F-0.31280877137013352
sI51
F-12.769608891063161
sI52
F-6.1682446260603747
sI53
F-3.0048839702596393
sI54
F-2.8852701253336899
sI55
F-1.5561002346209065
sI56
F-9.3687595537440789
sI57
F-14.954541389173295
sI58
I0
sI59
F-9.675095737733324
sI60
F-9.7230889633287578
sI61
F-1.7816171623133474
sI62
F-14.100561029511823
sI63
F-0.23576666275854241
sI64
F-0.13758576469774475
sI65
F-3.2046564273135187
sI66
F-0.36211207879854346
sI67
F-9.0068271778769979
sI68
F-1.0410056614974046
sI69
F-6.243984323789733
sI70
F-3.3945999341591526
sI71
F0.33759333853059348
sI72
F-4.1811381324554802
sI73
F-9.6316059205697506
sI74
F1.4209288777866584
sI75
F-3.3228840443797192
sI76
F-3.5304321845086721
sI77
F-10.549452737381397
sI78
F-3.0778124224587815
sI79
F-4.6663584430274305
sI80
F-2.4470717171861507
sI81
F-2.579867862848761
sI82
F2.0304469153381346
sI83
F-7.1955271683721262
sI84
F-2.7933276172658257
sI85
F-1.2469855517971875
sI86
F-5.5547255324204539
sI87
F-12.936909213695852
sI88
F-2.6714420381163539
sI89
F-0.80529848738559684
sI90
I0
sI91
F-14.33392140852715
sI92
F-11.727171763881072
sI93
F-9.8038766150818795
sI94
F-7.0615480901364656
sI95
F-6.2780801150845083
sI96
F-4.0487591305597626
sI97
F-5.8725954773228288
sI98
I0
sI99
F1.6839071247193793
sI100
F-8.704447249046634
sI101
F-0.60038632747826415
sI102
F-7.8433301487301774
sI103
F-1.1779302760378405
sI104
F-15.095752808464511
sI105
F-0.80501160244276004
sI106
F-0.35546751689439371
sI107
F-2.906783220535393
sI108
F-2.5786491643930574
sI109
F-0.26878528259099688
sI110
F-7.3212361066238509
sI111
F-0.72813276138421568
sI112
F-7.7324301876288075
sI113
I0
sI114
F-1.8672837880662954
sI115
F-10.383860007880163
sI116
F-3.3922936721921868
sI117
F-2.7968456049906605
sI118
I0
sI119
F-10.298841378759526
sI120
F-8.3923814154865148
sI121
F0.58164784633842204
sI122
F-11.22374376924633
sI123
I0
sI124
F-3.6287056328982157
sI125
F-5.6215817488415283
sI126
F-2.0066969258065894
sI127
F0.5668938128552401
sI128
F-10.281819427660466
sI129
F-6.2069235293244684
sI130
F-3.6046051280460825
sI131
F-2.5061145803834757
sI132
F-10.589773776053413
sI133
F-7.4827259728458806
sI134
F-9.5700489309446368
sI135
F-2.504364037954264
sI136
F-7.5680721062680192
sI137
F-11.97762777467365
sI138
F-23.364828503847743
sI139
F-4.2955400732331643
sI140
F-9.4624028259118127
sI141
F-0.24029877832914837
sI142
F0.61042809398558173
sI143
F-8.4853257468255414
sI144
F-8.3405658909740517
sI145
F-8.1732571841686532
sI146
F-12.025116417748233
sI147
F-6.3138183166076765
sI148
F-5.6422071773468909
sI149
F-3.2009693743020016
sI150
F-3.3995075944803554
sI151
F-16.675064994795914
sI152
F-3.4595220154948167
sI153
F-9.9942625831445184
sI154
F-5.9776645577748644
sI155
F-3.2195684553310056
sI156
F-17.156199474044804
sI157
F-8.4374638602494816
sI158
F-6.0459523611163091
sI159
F-3.7484462815349997
sI160
F-5.6967849151026781
sI161
F-3.633321137416063
sI162
F-11.863512374376684
sI163
I0
sI164
F-1.6130397365805957
sI165
F-9.7473366216648571
sI166
F1.7558088160561653
sI167
F-6.844169510327605
sI168
F-0.28966277682377894
sI169
F-1.7851864928616892
sI170
F-5.2286748636713289
sI171
F-5.9129754894065805
sI172
F-0.12842176140610739
sI173
F0.26249467373957813
sI174
F-7.7240361770029375
sI175
F-1.13810833794793
sI176
F-13.809350442899504
sI177
F-1.736241671550856
sI178
F-7.3246778034123654
sI179
I0
sI180
F-3.1515793629953959
sI181
F-15.076173417356266
sI182
F-2.3241136658996653
sI183
F-1.0539216992146834
sI184
F-9.5326015562874069
sI185
F-7.5195945847740973
sI186
F-3.9732914337477574
sI187
F1.8146328502388238
sI188
F-1.3786132835910072
sI189
F-13.004111527067394
sI190
F-0.067998353632101605
sI191
F0.39070316384454196
sI192
F-0.30093331225647368
sI193
F-3.0548866202241678
sI194
F-5.1182707969616725
sI195
F-0.98540976641170186
sI196
F-6.2643806399025062
sI197
F-8.4120594440478484
sI198
F-0.8906268810839908
sI199
F-7.4049280079793744
sI200
F-5.0786623387524026
sI201
F-4.0324682087675257
sI202
F-21.688081111174558
sI203
F0.93951055155149477
sI204
F-9.4426542445612256
sI205
F-7.0474112131269928
sI206
F-9.3169622586497933
sI207
F-19.708692109418404
sI208
F-6.7210956016519443
sI209
F-1.4268125533949085
sI210
F7.0025043341651285
sI211
F-0.76145158899901766
sI212
F-17.140889948841757
sI213
F-13.513852245523255
sI214
F-0.95147855714572582
sI215
F-10.120938061476874
sI216
F-5.6286869450779884
sI217
F-5.4858633658797906
sI218
F2.8812565548454669
sI219
F-13.184764923266075
sI220
F-2.2552160940849526
sI221
F-6.8674643676665159
sI222
F-3.2132084119460189
sI223
F-1.2075069535957272
sI224
F-1.4117317740673725
sI225
F-7.5273868764701071
sI226
I0
sI227
F-0.57640668382820337
sI228
F-1.5352542611134177
sI229
I0
sI230
F-2.7498160054220406
sI231
F-5.9382245879723339
sI232
F-0.85913497253524707
sI233
F-3.3943302364192376
sI234
F-7.6546365887648076
sI235
F-3.1486830990757504
sI236
I0
sI237
F-7.7290602052722601
sI238
F-15.732762675899975
sI239
F-1.9468379010015449
sI240
F-0.80913203451325533
sI241
F-11.059077042254419
sI242
F-6.511795394570739
sI243
F-8.3205625978151367
sI244
F-2.4539526760782047
sI245
F-2.0470111456058833
sI246
F-1.1923803353890867
sI247
F-5.0124230209320242
sI248
F12.436732563604489
sI249
I0
sI250
F-11.080385332251177
sI251
F-7.9524175436663169
sI252
F-15.379528193627893
sI253
I0
sI254
F-5.3900887296156279
sI255
F-6.3425907954773795
sI256
F-1.8368914862304599
sI257
F2.743837880389763
sI258
I0
sI259
F-10.428051848125989
sI260
F-12.465874548747591
sI261
F-1.7245315106616457
sI262
F-0.17514028926071479
sI263
F-0.31957335945231735
sI264
I0
sI265
F-4.5753006072197895
sI266
F-1.8994241597678663
sI267
F-6.5162090340947234
sI268
F-2.2385198841472902
sI269
F-12.365651117821633
sI270
F-4.8309831489297457
sI271
F-1.743862051972159
sI272
F-17.530667702372121
sI273
F2.0169235930947593
sI274
F-6.4372353685152497
sI275
F-0.8063301227400701
sI276
F-23.885069500816662
sI277
F-6.743466327966658
sI278
F-3.552068488693044
sI279
F-2.0150568493621925
sI280
F-10.311631305402667
sI281
F1.1220260051038922
sI282
F-4.6436612644230877
sI283
F-7.3484070808864939
sI284
F-2.1623696289489347
sI285
F-9.7596181656526859
sI286
I0
sI287
F-1.1919192302737103
sI288
F-6.4801573689665624
sI289
F-21.859147038916319
sI290
F-0.59369242016266011
sI291
I0
sI292
F1.9433597365953696
sI293
F-14.075410029030621
sI294
F-16.280703090273104
sI295
F-1.555446488743855
sI296
F-16.372580970671315
sI297
F-2.2079796715812301
sI298
F-9.6463343190498119
sI299
F-2.2519930928621954
sI300
F-6.6206595773503576
sI301
F-1.7186331236052155
sI302
F-3.2608096785517398
sI303
F-3.3559700726809121
sI304
F2.6109882238188389
sI305
F-0.32253071784186371
sI306
F-0.650442908925561
sI307
F-2.1463882573830415
sI308
F-3.6887662653474793
sI309
F2.7339486672939874
sI310
F4.7316344990031354
sI311
F-17.044209669623907
sI312
F-3.9290475044293887
sI313
F-18.480899407627568
s.