(dp1
I0
F-0.48281453332993784
sI1
F5.0553837437789495
sI2
F5.1485267325335782
sI3
F5.2077517695197066
sI4
F5.7510212157960359
sI5
F5.4679428375444017
sI6
F5.6005644772059933
sI7
F5.9741315752497934
sI8
F11.917464791427424
sI9
F4.071479757238234
sI10
F6.0479146737862397
sI11
F4.1073803959003854
sI12
F3.5007977816323308
sI13
F5.9814216869042038
sI14
F4.3941898241450073
sI15
F11.179794108071373
sI16
F1.3686576931440575
sI17
F6.8597408471698822
sI18
F3.5343579145827064
sI19
F9.4547546224110732
sI20
F4.3726527767080325
sI21
F1.425219812008506
sI22
F5.8802536948788759
sI23
F0.38749441157080344
sI24
F1.183003130214777
sI25
F0.43936299040731708
sI26
F1.7065934086194376
sI27
F4.4825157942409319
sI28
F-1.4286851644810374
sI29
F7.8943358761341917
sI30
F-2.5122584472677669
sI31
F0.63601317584775163
sI32
F1.5714293388508063
sI33
F5.8947390783277696
sI34
F1.8194850173773158
sI35
F3.5055274713536351
sI36
F0.57462111712411623
sI37
F1.9927357324183479
sI38
F3.4156855954964183
sI39
F4.586455778865715
sI40
F15.510103507299117
sI41
F2.1723975717790944
sI42
F0.64512724438490654
sI43
F4.9148496516807292
sI44
F4.8920399432577026
sI45
F-0.22238815319317506
sI46
F3.3297914100896788
sI47
F1.7933347871657324
sI48
F1.4705523904515312
sI49
F4.9108635645850827
sI50
F1.9900347252695605
sI51
F-0.13104767259496786
sI52
F0.1056302307792425
sI53
F0.65725140622587652
sI54
F6.3404361423999998
sI55
F9.8044518045607312
sI56
F0.46549145040992901
sI57
F1.0229758322629561
sI58
F-2.1701584975334081
sI59
F4.8562164750848371
sI60
F8.4300912136664454
sI61
F2.0359988463299805
sI62
F0.22185516056365273
sI63
F3.2353304317355951
sI64
F-0.25451050585673762
sI65
F1.6196524115695379
sI66
F1.2032303997824512
sI67
F2.4995612481927649
sI68
F0.039609708815710576
sI69
F7.1152972985315248
sI70
F0.75010787279281566
sI71
F0.2275134266051122
sI72
F0.25009047665132655
sI73
F4.3240460766879263
sI74
F3.6567101841959833
sI75
F1.3930880474839942
sI76
F0.92881669311876092
sI77
F6.0593645772801255
sI78
F-2.2498423494309403
sI79
F12.465145738486193
sI80
F2.562312986313783
sI81
F-0.0059689685780233148
sI82
F1.9276740746166405
sI83
F0.19455298218694228
sI84
F2.6041989770695828
sI85
F1.3689363295213637
sI86
F0.66315755155496436
sI87
F0.03854050907994111
sI88
F0.70089555628913658
sI89
F4.1961296237949055
sI90
F3.8479768736912261
sI91
F-0.096293829480111448
sI92
F2.3538482775107843
sI93
F5.3115238980283213
sI94
F-0.15751745137924278
sI95
F7.9178256616145868
sI96
F2.546568475538928
sI97
F6.4771569815297445
sI98
F2.556523390027337
sI99
F1.7491492894109077
sI100
F11.361605380737442
sI101
F-2.4108870178527129
sI102
F11.06288654675016
sI103
F1.6385405302423788
sI104
F-0.47790153099450361
sI105
F0.14443903450035034
sI106
F3.955738263193318
sI107
F0.11649582357194355
sI108
F-0.8942797327639882
sI109
F0.10358390650177096
sI110
F14.980273485060019
sI111
F1.3220322074436943
sI112
F1.2444149042018502
sI113
F0.36891921778048786
sI114
F1.2432546468967498
sI115
F0.32147384564053283
sI116
F11.126461858563706
sI117
F0.1549596071418371
sI118
F0.91218541069674597
sI119
F2.4921532084606675
sI120
F6.8941713725916527
sI121
F1.865745527166597
sI122
F0.50067942819385269
sI123
F-0.40218504013203571
sI124
F9.0663979815664799
sI125
F1.0443481688214504
sI126
F1.8732186450136599
sI127
F-1.3608704487712249
sI128
F2.2140245249247839
sI129
F0.19467935455453667
sI130
F2.4389665690873708
sI131
F0.42677574182021072
sI132
F1.3781823173095811
sI133
F1.3635617301240908
sI134
F0.55769176860437142
sI135
F-1.5873645119800894
sI136
F0.31507188321046709
sI137
F-0.90735958962209828
sI138
F1.4055152600884568
sI139
F6.7518930040543159
sI140
F8.3008913001550759
sI141
F1.9881855910353439
sI142
F5.0752126882504438
sI143
F0.88502950139000536
sI144
F-2.1164183365347817
sI145
F0.75442267311924471
sI146
F0.028446070908364263
sI147
F1.3009401391275146
sI148
F-0.35710794782856148
sI149
F1.2197830391233619
sI150
F8.1055558763475659
sI151
F1.2120590735573771
sI152
F-0.50178820911606614
sI153
F-2.4453568511537576
sI154
F5.4854470460464979
sI155
F0.30580706316811401
sI156
F0.97474951838374135
sI157
F1.4764000649709521
sI158
F0.77434770997107716
sI159
F7.9921945091243094
sI160
F13.121140388982163
sI161
F0.30095271985233207
sI162
F0.46860735744601012
sI163
F-0.64050375921371305
sI164
F1.1354420757867825
sI165
F1.7734851216950709
sI166
F-1.1467655824261316
sI167
F-0.15307074204881133
sI168
F1.3605390127728674
sI169
F4.4682777447710178
sI170
F2.1551221381569716
sI171
F-0.30320033307256189
sI172
F0.46945867451047185
sI173
F1.344897526968051
sI174
F-1.1971965264111386
sI175
F0.34521805939817973
sI176
F-1.6128461794505666
sI177
F7.7930189094272384
sI178
F14.837929701085224
sI179
F-0.59612516187350373
sI180
F0.39796502366138231
sI181
F-0.4215027263841904
sI182
F-1.0160176834671892
sI183
F0.64142435242594775
sI184
F-0.085739654237611873
sI185
F0.46255047025246832
sI186
F1.1447787519820638
sI187
F1.5280672960966317
sI188
F-0.7140117182015695
sI189
F2.460006917412116
sI190
F0.22248063914729421
sI191
F-0.10413382126342263
sI192
F6.5070091721084919
sI193
F2.572275266025124
sI194
F-2.2001939169311759
sI195
F-1.0555661273455925
sI196
F1.7468945916159893
sI197
F1.6513242086319613
sI198
F1.1485600848991755
sI199
F-2.0076732252868323
sI200
F0.62204535018068707
sI201
F0.72572432626892791
sI202
F-0.78190006200158013
sI203
F0.59887332913410507
sI204
F-1.6950494122035806
sI205
F7.2040998346091758
sI206
F1.5977744869762009
sI207
F-1.3876903972075159
sI208
F-0.098353114887507864
sI209
F-0.038748196091368037
sI210
F2.6192474534046362
sI211
F-1.8018413601788064
sI212
F6.6060819786485432
sI213
F4.8316839286928364
sI214
F0.93910997513340444
sI215
F5.1153432966127079
sI216
F-4.1193471386278997
sI217
F-0.39856687581108385
sI218
F11.146244981142164
sI219
F0.61673289311619417
sI220
F-0.91429404462396935
sI221
F0.75199376488872449
sI222
F0.97651132058819456
sI223
F9.4307549653982701
sI224
F0.62351231587470934
sI225
F0.68572395895625249
sI226
F-0.65578921622614583
sI227
F8.5440717128717445
sI228
F0.14637288045660668
sI229
F0.27770378489446657
sI230
F1.8703116971084786
sI231
F0.35474832668787482
sI232
F10.229174229428473
sI233
F13.763360963818322
sI234
F11.054865207393082
sI235
F0.93998051697741225
sI236
F9.6770850860900328
sI237
F0.41663257020803712
sI238
F3.189958549255457
sI239
F-1.2483188778663799
sI240
F0.21951897487473815
sI241
F4.5947319197404344
sI242
F-1.720055805224419
sI243
F6.0884182837937253
sI244
F9.9652806759582013
sI245
F-2.1982271278648211
sI246
F5.8601952161638344
sI247
F-2.4998330170282985
sI248
F4.4622811028042531
sI249
F1.7465203206297506
sI250
F1.1275507958110982
sI251
F0.82169970840059303
sI252
F11.138809991081537
sI253
F1.8628834290379439
sI254
F-1.100057441239521
sI255
F0.9640895216450156
sI256
F4.1435680169429565
sI257
F5.80117719202764
sI258
F-3.1616233807265459
sI259
F7.6855366632514288
sI260
F-1.9088845933690548
sI261
F0.61638575991887379
sI262
F1.0523839507804329
sI263
F8.4839584927562832
sI264
F-0.93915878847745571
sI265
F0.6505997012968896
sI266
F12.955257352806886
sI267
F0.60832410019800776
sI268
F13.105457515901765
sI269
F0.61112925224762815
sI270
F-1.5047951142880205
sI271
F8.8451351135403442
sI272
F-1.7273979276186644
sI273
F1.5839947148167486
sI274
F-1.4870622122309012
sI275
F-0.24777408407281776
sI276
F-2.0797176059026681
sI277
F0.24984279836705525
sI278
F-2.1926042335784866
sI279
F-3.2522444418164831
sI280
F-1.603934810042615
sI281
F-0.084751345904485298
sI282
F0.93995489191129078
sI283
F0.092149616326946848
sI284
F-1.1726350185368544
sI285
F-0.47287416239661706
sI286
F-0.77876050498715799
sI287
F-3.0645400139888919
sI288
F1.0980414603012445
sI289
F1.2429514972482023
sI290
F4.1448651424484719
sI291
F-1.081245072354565
sI292
F0.35942568221915128
sI293
F0.0343701851158702
sI294
F1.2386602238005047
sI295
F0.88013047884560347
sI296
F8.0509868386145254
sI297
F-1.4161426885595194
sI298
F-1.101567684838515
sI299
F0.96776035643739355
sI300
F-1.6708448447901505
sI301
F0.6671088461587944
sI302
F1.1172760811436016
sI303
F1.2836411941556465
sI304
F-1.5799662272471071
sI305
F-1.6863358386891116
sI306
F-3.5608859951741874
sI307
F-0.50070875917438151
sI308
F-1.1667825464189887
sI309
F0.81825938684864852
sI310
F-1.1771195683564617
sI311
F-3.084701939181687
sI312
F-0.34339702564066865
sI313
F7.7325187450502062
sI314
F0.77122160093510228
sI315
F-1.9086220106988891
sI316
F0.83775441132838058
sI317
F-1.9621824453264107
sI318
F0.39805308986293486
sI319
F-3.7110274017450422
sI320
F6.7762653825183774
sI321
F2.8979128390382121
sI322
F-1.4407237485465609
sI323
F1.0826563199507904
sI324
F-0.84279509359091076
sI325
F6.8460971298587898
sI326
F18.910230128768813
sI327
F-0.68628265240043973
sI328
F-6.7762976335065987
sI329
F-1.7013916973380994
sI330
F9.4605914589320825
sI331
F0.14027944349027877
sI332
F-2.5178945368477708
sI333
F9.5942872975207507
sI334
F4.9612694048080215
sI335
F7.8153541672897147
sI336
F-2.2156673715306852
sI337
F4.2652180123055512
sI338
F0.029002628857575985
sI339
F-1.9262461895776051
sI340
F11.299890960617017
sI341
F-2.2601125160126205
sI342
F8.7960522433314718
sI343
F8.3472865828200931
sI344
F6.3184698429585486
sI345
F-3.0930905991084341
sI346
F6.2520590855566498
sI347
F1.1049497637583228
sI348
F4.0602025044363108
sI349
F0.86881617098988428
sI350
F-3.5926284758938678
sI351
F11.996174260348422
sI352
F4.0438548925124884
sI353
F-1.1082637310721859
sI354
F3.9918499708297217
sI355
F-0.48995046020001798
sI356
F3.0315365237366017
sI357
F-1.250449291153056
sI358
F8.8166074527202269
sI359
F-2.1056644112078828
sI360
F-1.842974145491052
sI361
F-2.7911443006472005
sI362
F12.451415109889222
sI363
F9.0379017127045511
sI364
F4.997141806418874
sI365
F7.2928264613629059
sI366
F-1.8627787963016926
sI367
F1.0046667282286919
sI368
F-2.8037721016353201
sI369
F-0.92590183722918429
sI370
F0.017329482728688284
sI371
F7.7068956066349266
sI372
F-2.4388759461517271
sI373
F5.1478458794725688
sI374
F1.0719304852633256
sI375
F-1.0569857032101417
sI376
F0.78924136703358538
sI377
F-1.378078579762783
sI378
F-0.8834015899722516
sI379
F10.505377493033984
sI380
F14.986256615057284
sI381
F12.403599898353624
sI382
F11.716024115873019
sI383
F10.259942258275576
sI384
F-4.8079816236267634
sI385
F-3.8087839827527956
sI386
F0.13728604290624968
sI387
F-3.6188867370339191
sI388
F1.1712761628814263
sI389
F8.4350853992981101
sI390
F-1.5198079881469511
sI391
F-2.8721104744550248
sI392
F6.0937445824551553
sI393
F-0.47781357415058423
sI394
F0.7864242386087783
sI395
F1.9854300275511116
sI396
F7.3776760064897875
sI397
F9.233701832312331
sI398
F11.968572335653953
sI399
F-3.8994720106903547
sI400
F9.0571889676271535
sI401
F0.77938562961337965
sI402
F0.32707155831839874
sI403
F-2.9982891101161426
sI404
F5.7723601220864049
sI405
F8.698252152505356
sI406
F2.3349039145085211
sI407
F0.395558631501717
sI408
F-0.61983200653716075
sI409
F-1.8525583767317331
sI410
F4.0554188055446287
sI411
F11.591846423354884
sI412
F9.8190931390492491
sI413
F10.040984778267337
sI414
F10.782340687816534
sI415
F8.2889793427489984
sI416
F0.88223199778498529
sI417
F-5.3800344625188599
sI418
F-2.8204624515275132
sI419
F9.7707553380247596
sI420
F7.0426242388823495
sI421
F-1.2696092522188591
sI422
F8.6909366334073823
sI423
F-2.3362083860028235
sI424
F-0.34604594949590251
sI425
F-0.93188376309932153
sI426
F2.3166765460238947
sI427
F6.2652247820364257
sI428
F6.0719012602147151
sI429
F-1.1180272386444372
sI430
F4.0012229403988764
sI431
F-2.7500425071968646
sI432
F-2.0326192640168523
sI433
F0.17924204124981191
sI434
F0.53516108314024891
sI435
F5.534895082517977
sI436
F8.9319985657377821
sI437
F-2.741332136242141
sI438
F-2.0945500334377725
sI439
F5.9770473655926502
sI440
F-1.7628857897050523
sI441
F0.69089909561132767
sI442
F-2.5384120362067613
sI443
F-6.8681349987864593
sI444
F21.164295685015869
sI445
F8.7100098057134225
sI446
F3.4537313851010678
sI447
F-3.7642499533030289
sI448
F17.167826717489312
sI449
F7.0542881649663958
sI450
F1.8280214672064679
sI451
F0.48379414552303324
sI452
F7.9683253154607465
sI453
F0.28841994790877568
sI454
F-0.95913755874676898
sI455
F0.77336225292453964
sI456
F-1.36047634178433
sI457
F1.4257251158426811
sI458
F2.919408301837203
sI459
F-1.8003758598926041
sI460
F-8.2417659158326089
sI461
F2.58399926869602
sI462
F-1.4676521407929446
sI463
F9.1328824364987646
sI464
F3.4148308565964305
sI465
F-1.2203810453159738
sI466
F-1.1027002645445805
sI467
F9.6528348211242481
sI468
F-3.3967346749614933
sI469
F-1.4714720941278561
sI470
F0.76595412439279453
sI471
F5.9881239447820453
sI472
F7.2585180308340886
sI473
F-5.3700927850708498
sI474
F12.993449891697725
sI475
F-1.8961802758179145
sI476
F-3.2995918308182608
sI477
F6.6643387127790694
sI478
F-1.6278411176546328
sI479
F-1.5628175841559671
sI480
F1.6453210905549822
sI481
F-0.20477902520184976
sI482
F-2.5285117628878542
sI483
F-2.9262282731196887
sI484
F-2.2936248016331735
sI485
F-0.96623904564940766
sI486
F5.3286130943142389
sI487
F2.8506080795893141
sI488
F-1.5938716335115775
sI489
F-0.86466090107893034
sI490
F-4.287755442025051
sI491
F-2.4552948879281349
sI492
F6.0498602307162441
sI493
F-2.45978753522399
sI494
F9.9051630671984299
sI495
F-1.6126490481184863
sI496
F2.4365822578487011
sI497
F-1.3520813702631456
sI498
F-1.1943629500587782
sI499
F7.4992708232520622
sI500
F-0.94728570137220913
sI501
F-4.4336576400126724
sI502
F3.1589047596963411
sI503
F-3.9190656843320895
sI504
F-1.3973339631512633
sI505
F4.0053573523533839
sI506
F4.2048421861036536
sI507
F5.528579762163516
sI508
F13.076102011513749
sI509
F-1.8446261733227676
sI510
F-0.20347812263218579
sI511
F2.7955118021144072
sI512
F8.6062811635680116
sI513
F-2.4173475808081619
sI514
F4.009535337380842
sI515
F2.8910584969454503
sI516
F5.8060054654322206
sI517
F-0.67158575383768859
sI518
F6.2126756777117071
sI519
F5.448213578452525
sI520
F-1.4458718206653014
sI521
F0.72366405622313756
sI522
F-0.54469149210429801
sI523
F7.7505496302497709
sI524
F-3.7485083384201774
sI525
F-1.1635688002930831
sI526
F-2.9578634228953637
sI527
F0.06038077194994429
sI528
F-2.7745977140380678
sI529
F-1.2120287577007547
sI530
F-0.81755291784153528
sI531
F-3.2301152590659514
sI532
F3.7508982118812808
sI533
F11.504232292195763
sI534
F8.1164148044579392
sI535
F-3.904428024479202
sI536
F3.2540725569641329
sI537
F2.7139057930726276
sI538
F6.1674387814660783
sI539
F4.9007977620347125
sI540
F9.1775361606347872
sI541
F3.140492859887777
sI542
F-1.2590992347015186
sI543
F0.12219098669670014
sI544
F0.26833230634950489
sI545
F4.0558812365836596
sI546
F5.2510865879835729
sI547
F2.9673416642876926
sI548
F-2.1950142324136612
sI549
F7.8308721231833056
sI550
F-2.6592550279512119
sI551
F-2.4005711963461192
sI552
F-1.8683770729349645
sI553
F-3.1875177009627169
sI554
F6.9036964602843085
sI555
F7.4005341984042374
sI556
F-1.7835379919600918
sI557
F-0.83234313598151566
sI558
F10.392800803756749
sI559
F-3.2971074850830977
sI560
F-3.7170207936633108
sI561
F14.928266263146156
sI562
F1.5017807515871437
sI563
F5.26979526122257
sI564
F5.0585448504574648
sI565
F2.2574250036081764
sI566
F-4.1703893652053345
sI567
F-3.456657039479456
sI568
F-2.9267803644831085
sI569
F5.0951858041989393
sI570
F-2.1144069934908467
sI571
F6.2729261863212784
sI572
F1.4393901215909617
sI573
F-0.85474956529422297
sI574
F1.7634401323603965
sI575
F1.3513902922235452
sI576
F0.041519597839354994
sI577
F7.4397616158211921
sI578
F3.7560798368593913
sI579
F4.7554687721062399
sI580
F0.78843319593887706
sI581
F-3.3264677531249696
sI582
F-1.8812174107752053
sI583
F-0.19283797677460424
sI584
F13.771547562840244
sI585
F8.9801852436948977
sI586
F4.9017545712182189
sI587
F9.4224382845650183
sI588
F0.67838004960223142
sI589
F4.4138004091726444
sI590
F7.3261831162207631
sI591
F-4.0980443182945443
sI592
F-1.1374803611914928
sI593
F-2.689577901739681
sI594
F-0.48641641903242228
sI595
F-1.569921850621661
sI596
F0.36370167205076509
sI597
F7.1819225419598354
sI598
F-3.8346819043484741
sI599
F2.9950301342444385
sI600
F-0.11003465492395659
sI601
F1.5690325500672984
sI602
F-4.0430668633425437
sI603
F-1.600922607663863
sI604
F5.0608102678424771
sI605
F-1.0039980473405086
sI606
F4.1949936831963326
sI607
F-2.2475582857110084
sI608
F-2.4874121359116153
sI609
F7.8116696530187753
sI610
F5.249553815310362
sI611
F-0.96415196940571057
sI612
F-5.0816559730367015
sI613
F-1.1733634637676191
sI614
F7.7278930918820645
sI615
F-1.5076925489500628
sI616
F7.0820631730782706
sI617
F-6.7640134765951743
sI618
F1.3922284042926814
sI619
F2.3668834429808134
sI620
F4.0438903204501697
sI621
F2.0386504840429041
sI622
F-1.702662433443904
sI623
F-2.4757831911617227
sI624
F8.2103190568933773
sI625
F0.13165866969709317
sI626
F-0.52896112877698886
sI627
F4.2357236854614753
sI628
F0.37825840233647856
sI629
F-2.0678846110952591
sI630
F-1.1257890305190896
sI631
F-2.5186815686863335
sI632
F2.5553897252528559
sI633
F8.988155690537436
sI634
F-2.5890161593465795
sI635
F-1.8411472351501539
sI636
F-0.95914587967591647
sI637
F-0.97491173099202211
sI638
F8.3321602877797147
sI639
F-3.530257035922121
sI640
F5.0808697279372357
sI641
F-2.4746200791097968
sI642
F-2.2335292095168757
sI643
F3.1804956550337939
sI644
F-2.4656321477659375
sI645
F6.3211543657079261
sI646
F4.3166771138954534
sI647
F6.5989655075977254
sI648
F-4.1983968787679036
sI649
F-2.2452601935377423
sI650
F5.1904161971503555
sI651
F5.2419497082287805
sI652
F-0.46943187109264795
sI653
F6.6485523568037106
sI654
F-3.8406260089746871
sI655
F-3.9401228577937149
sI656
F6.747190486692757
sI657
F-1.8983002946736161
sI658
F-2.2758981555364342
sI659
F1.8867972386405087
sI660
F8.3446412318427967
sI661
F-3.1247149286101914
sI662
F-3.168290990319429
sI663
F-7.9350892958628343
sI664
F4.5025900185877825
sI665
F2.8610697914578216
sI666
F-2.2660154021959267
sI667
F3.9010298699180828
sI668
F-3.6486513561047236
sI669
F5.7212790285948296
sI670
F0.70862006783422782
sI671
F-2.7166012577070227
sI672
F-1.9601061911991904
sI673
F0.32242685229915802
sI674
F-0.48329917776417197
sI675
F2.9334644783924722
sI676
F8.1326176801063639
sI677
F8.9640281426118307
sI678
F6.9819283993605241
sI679
F-4.9722003743315009
sI680
F-4.1082369919240307
sI681
F4.152346340548057
sI682
F5.4479710196034139
sI683
F7.7307415313357621
sI684
F-1.9680675433229444
sI685
F17.901904614370643
sI686
F4.3694050569055864
sI687
F-3.5431857647347664
sI688
F5.9674129345404907
sI689
F-2.9453539836395155
sI690
F-1.2286732953990205
sI691
F-4.2324343794663744
sI692
F0.47835534403035851
sI693
F0.1891515844656988
sI694
F-0.87649309091025174
sI695
F1.4533647550350359
sI696
F0.75350696405257356
sI697
F-4.7134330931379118
sI698
F4.5275511932201287
sI699
F-0.35709173370357838
sI700
F0.12530029335387205
sI701
F-3.0001146691621905
sI702
F-4.1462314044071551
sI703
F4.5086314607185161
sI704
F-3.3179447888364901
sI705
F11.307466781777787
sI706
F-2.53294353672376
sI707
F7.206328845520181
sI708
F3.1725755305898846
sI709
F-4.2467823568199892
sI710
F-4.1724892266048679
sI711
F6.754445850549649
sI712
F-3.8314486500571405
sI713
F-3.3594848180520929
sI714
F1.0792027502887116
sI715
F-2.5096039396865386
sI716
F2.9411964355359199
sI717
F-2.48023967693317
sI718
F8.9275800440721618
sI719
F10.856357832297761
sI720
F-5.4747256963666642
sI721
F-2.6431858492392273
sI722
F0.070636729758248862
sI723
F3.932419085910662
sI724
F4.2215039290632221
sI725
F5.3095332141401039
sI726
F21.189758521351163
sI727
F5.2043204224066359
sI728
F3.0055843409280412
sI729
F3.2338167174614467
sI730
F0.56767245603978811
sI731
F21.232823275770098
sI732
F-2.1939964436751449
sI733
F-1.0521669746619624
sI734
F4.9000822790831489
sI735
F-3.2407700413511504
sI736
F8.2010712476076471
sI737
F1.9330595671257962
sI738
F3.5171407107056751
sI739
F1.3016115901734233
sI740
F-5.1364421265634421
sI741
F-2.5363868866563513
sI742
F-1.0669518404290566
sI743
F3.1058104642526425
sI744
F1.4703785052208458
sI745
F-3.0490129077768371
sI746
F-0.95781330939476828
sI747
F4.0503413985107919
sI748
F0.91359921906019759
sI749
F-4.6694818964664462
sI750
F-3.0738890711340181
sI751
F3.8469274411790719
sI752
F-1.6477466520109179
sI753
F8.6605485972700844
sI754
F2.7683907781583663
sI755
F0.91783221686855931
sI756
F-4.482068300356941
sI757
F3.0236406785492931
sI758
F7.9699331759125718
sI759
F2.6897849665029314
sI760
F-2.337083230251471
sI761
F-3.5460460409919552
sI762
F-1.9091366165549895
sI763
F4.9186001918188316
sI764
F-3.2894077536602158
sI765
F4.1121417881734788
sI766
F-3.8896745604049414
sI767
F11.902563037624954
sI768
F-4.5126837707286649
sI769
F-2.9157115044244515
sI770
F-4.464588436939473
sI771
F1.8342590188843362
sI772
F5.5741328734227054
sI773
F8.1288182371339737
sI774
F4.3897150892578116
sI775
F-2.4017422200961418
sI776
F2.2830972893282766
sI777
F-2.0407702968635268
sI778
F0.028609751057869559
sI779
F-3.5144731676156447
sI780
F4.849385005001948
sI781
F-1.3262520887341021
sI782
F-0.13186617205948492
sI783
F0.63982069141503395
sI784
F0.25049080275805835
sI785
F4.560041606852888
sI786
F6.159991354662278
sI787
F6.7193382632724328
sI788
F3.9462039279597851
sI789
F0.97392442826643721
sI790
F2.1589913436938639
sI791
F-1.7913063458357339
sI792
F3.6020823435859972
sI793
F3.2042291853612679
sI794
F2.7635070527769008
sI795
F-2.315926102044501
sI796
F16.982630290946116
sI797
F-3.9915449841530188
sI798
F-0.11040856783577269
sI799
F-2.3572803778619882
sI800
F6.3430744949643962
sI801
F2.5846947216312497
sI802
F4.8732492036642308
sI803
F1.4906024462980261
sI804
F4.9271759423712425
sI805
F-6.9964476974214449
sI806
F-1.8507140548130074
sI807
F-4.0362887507935445
sI808
F1.2585905769930923
sI809
F-0.27790761752874005
sI810
F6.3993721401271655
sI811
F2.4998916830845745
sI812
F-0.17887238308413878
sI813
F5.6831272707413643
sI814
F3.7862659021615372
sI815
F3.2397446644164267
sI816
F3.4738534719162457
sI817
F-4.8962367964129605
sI818
F5.2456725591758637
sI819
F-4.6912352812010027
sI820
F4.2292697907388579
sI821
F2.5190844353023829
sI822
F-4.2102926104264977
sI823
F-4.256102583219934
sI824
F-3.1717124388397773
sI825
F-3.256730309343677
sI826
F5.8525948010675455
sI827
F-1.9954524946985677
sI828
F2.4440578925249321
sI829
F-4.8296924793131613
sI830
F-2.3065349758747278
sI831
F4.8141108682958391
sI832
F-4.9004478195923848
sI833
F5.8674034871624698
sI834
F-3.4362883221367744
sI835
F0.31173056883368222
sI836
F5.9067005734736053
sI837
F4.5090613386305227
sI838
F8.0293630003920633
sI839
F7.0155589178981428
sI840
F2.3302511721860801
sI841
F8.7522360875519141
sI842
F-1.6750275289279148
sI843
F1.3726252197613538
sI844
F-0.066819522767517903
sI845
F0.1449535580105854
sI846
F7.2751473024213382
sI847
F-4.0933024975366079
sI848
F-3.6106267429771401
sI849
F9.5796666739293439
sI850
F2.8431338381052127
sI851
F3.4964010834177941
sI852
F2.9896471523585246
sI853
F-4.3970195109662029
sI854
F2.6089449167693468
sI855
F2.9029447897269027
sI856
F-0.67005407057917399
sI857
F-0.72808103252534373
sI858
F7.8475682368861142
sI859
F-0.078404807660881648
sI860
F-4.6608316817552708
sI861
F2.9850041003740877
sI862
F1.3283989930258189
sI863
F5.3406944131738872
sI864
F5.6835732613676706
sI865
F-2.2658150298209048
sI866
F-4.3946562452534597
sI867
F6.5554157023594666
sI868
F5.8042934663047827
sI869
F4.951460497237604
sI870
F0.98499935476269629
sI871
F-1.4257516411674827
sI872
F-3.1138969763010111
sI873
F5.342041644471724
sI874
F4.6340637671305691
sI875
F-2.7411576382618552
sI876
F6.3425700542507197
sI877
F-2.5352785578036894
sI878
F-1.7633963556991636
sI879
F5.674593577979846
sI880
F3.6527300827934646
sI881
F7.1604363515325975
sI882
F-4.2868986135522169
sI883
F-0.69040880867032062
sI884
F1.3945018212614739
sI885
F0.32861441537245284
sI886
F0.15231521555256933
sI887
F5.3147295141205069
sI888
F7.0084425679595004
sI889
F21.3016996855511
sI890
F1.9448173358023615
sI891
F-1.8607219115522771
sI892
F-0.8598477965056146
sI893
F-2.2094335249456671
sI894
F0.91117740498555166
sI895
F-2.0535304153597442
sI896
F-2.9973251790924555
sI897
F-4.6764983870200654
sI898
F7.0783914273221038
sI899
F3.3421277871420036
sI900
F2.5093122788192597
sI901
F4.5740046064712718
sI902
F0.71570042884458696
sI903
F-4.8717944080766831
sI904
F3.0565615959283345
sI905
F12.765775097709453
sI906
F8.0140610045616807
sI907
F0.11935135715087597
sI908
F1.4011133987168183
sI909
F-3.4031551075398916
sI910
F-5.0669278486419609
sI911
F4.1382133558470455
sI912
F-2.1833786746653034
sI913
F3.301684811632061
sI914
F-0.15878848699859871
sI915
F0.25777785742460857
sI916
F4.490263589801172
sI917
F-0.86342551219307673
sI918
F4.8620996031614885
sI919
F-2.4338088940416442
sI920
F-3.90570163388883
sI921
F-2.5934241949087511
sI922
F2.5230667875350603
sI923
F6.9799583777078391
sI924
F2.9069842802836203
sI925
F-3.2573626402448017
sI926
F2.202746060832462
sI927
F8.676224932851401
sI928
F-5.0034909796911018
sI929
F-5.2717748662317456
sI930
F4.4957835761528022
sI931
F-4.4091204584581245
sI932
F5.5339456409399341
sI933
F-1.7125638491085269
sI934
F-4.6647720158054664
sI935
F3.7869508097321711
sI936
F7.753785220707023
sI937
F13.434806171958524
sI938
F-5.6835932247092593
sI939
F7.2182067424175367
sI940
F-4.5955735264098108
sI941
F-4.3874434028004012
sI942
F4.7941566635274961
sI943
F0.041668826421691563
sI944
F-2.9250483254464239
sI945
F-3.2933830502398296
sI946
F-2.2686860372052458
sI947
F3.8214079912523093
sI948
F15.687545820328019
sI949
F-2.1833544307805592
sI950
F0.62923665803121853
sI951
F-0.082792837490012428
sI952
F0.50082266080549864
sI953
F-4.9906257777865832
sI954
F9.6211595470860871
sI955
F7.2917389167210089
sI956
F-2.5389564798695048
sI957
F0.634759937688675
sI958
F-4.4896123251451581
sI959
F0.78352965974186795
sI960
F5.8752477497013675
sI961
F-3.4097130517660483
sI962
F5.7685353660837544
sI963
F-4.0838334453974063
sI964
F4.184880785255892
sI965
F7.6603468742988721
sI966
F0.69620829357539193
sI967
F-3.2131005055556496
sI968
F-0.24642620712315377
sI969
F2.666547863766251
sI970
F-1.5230260208543829
sI971
F-5.2811142817233279
sI972
F5.8499606306588685
sI973
F-3.0462095431051139
sI974
F-3.1273441560103059
sI975
F8.7555653292712492
sI976
F0.45959644939771938
sI977
F-4.9344117669228558
sI978
F-3.8395907156202229
sI979
F-3.0482397570730715
sI980
F-5.9058414577838017
sI981
F-3.9910750230080945
sI982
F-3.5400943539695522
sI983
F-4.0283305878964111
sI984
F8.8451181613703831
sI985
F3.3176732303300378
sI986
F-4.815698720995317
sI987
F9.8292954595792388
sI988
F-2.9418833011498418
sI989
F3.3116191642779809
sI990
F2.3878614404900462
sI991
F-3.0783322954684129
sI992
F1.9920951016002162
sI993
F-4.0647186609783095
sI994
F-4.3184159233043857
sI995
F-1.9179292492678988
sI996
F0.90062107303502881
sI997
F-4.6045587835412114
sI998
F0.27239738004062986
sI999
F4.631848891962969
sI1000
F4.3308082190792252
s.