(dp1
I0
F-0.49879133008164267
sI1
F5.0506252244775203
sI2
F5.0727000400098312
sI3
F5.1683465278543856
sI4
F5.7168039802805852
sI5
F5.4323965877617386
sI6
F5.5669839948668809
sI7
F5.9465344006344303
sI8
F21.46667740192223
sI9
F3.9974750976799331
sI10
F6.030224984923624
sI11
F4.0713196222813606
sI12
F3.4258303134718542
sI13
F5.9522554699821013
sI14
F4.3596866725709331
sI15
F17.313924751910854
sI16
F1.2704907455741958
sI17
F13.818415502633977
sI18
F3.4973719954912683
sI19
F12.132868117976326
sI20
F4.3390642609614396
sI21
F1.3325577194125229
sI22
F5.8590389830493264
sI23
F0.18856384007307003
sI24
F1.1037350276075317
sI25
F0.31353889164213467
sI26
F1.7568892345322746
sI27
F4.4506511578289212
sI28
F-2.3651281476073329
sI29
F11.725258308729893
sI30
F-3.1598950112275555
sI31
F0.41488679658474048
sI32
F1.5006626635365556
sI33
F6.8132441639547032
sI34
F1.7461846216358019
sI35
F3.4698743514878352
sI36
F0.50442152662211281
sI37
F1.9275786750544652
sI38
F3.432909830883708
sI39
F4.5577179450588146
sI40
F18.702964779952712
sI41
F2.105799117889406
sI42
F0.48792975738637168
sI43
F4.8944515237086348
sI44
F4.8609435162178514
sI45
F-0.35003396887913762
sI46
F3.295095460559426
sI47
F1.6784753558511882
sI48
F1.3975251304031175
sI49
F4.8877422535638999
sI50
F2.0006485071701601
sI51
F-0.23430403849207959
sI52
F0.01377219378918948
sI53
F0.58369309753122245
sI54
F6.5613156059606297
sI55
F9.9385758283539829
sI56
F0.30938278075162717
sI57
F0.94512788868312558
sI58
F-3.2507127505243725
sI59
F5.0685235397480231
sI60
F8.7614656246722795
sI61
F1.9462795270636466
sI62
F0.20928756759036382
sI63
F3.2028481429222442
sI64
F-0.33611007805730697
sI65
F1.5843750071579858
sI66
F1.2026010929595516
sI67
F2.4110999343589956
sI68
F-0.024488463354737533
sI69
F7.3877379817590434
sI70
F0.62240340957820539
sI71
F-0.05472238393482165
sI72
F0.19479618357373063
sI73
F4.2925115374336791
sI74
F3.6277369585490327
sI75
F1.2753124359652608
sI76
F0.87860306893046758
sI77
F6.0451537336412091
sI78
F-3.2254494595375496
sI79
F13.378107367141737
sI80
F2.566159838160619
sI81
F-0.10820485606405494
sI82
F1.8937963056345266
sI83
F0.091353899531184446
sI84
F2.5263254334950584
sI85
F1.4319811156969315
sI86
F0.54094993828350102
sI87
F-0.042998895265079717
sI88
F0.40661559355716914
sI89
F4.1729061924350743
sI90
F3.8274363042089368
sI91
F-0.25616309146779148
sI92
F2.233333416701659
sI93
F5.503472629782765
sI94
F-0.22110346454274676
sI95
F8.0086339280554366
sI96
F2.4417442348513703
sI97
F6.5609527975075714
sI98
F2.5321710248151863
sI99
F1.7443617355081349
sI100
F12.785463923718893
sI101
F-3.3758693218453253
sI102
F11.049012918913132
sI103
F1.526924736061555
sI104
F-0.54501125774044112
sI105
F0.067845959456425575
sI106
F4.1045239386823038
sI107
F0.049681926595734005
sI108
F-0.99897895600811637
sI109
F0.019897623573347012
sI110
F15.457472889642395
sI111
F1.3261315749146361
sI112
F0.99088628466764828
sI113
F0.31488163343939757
sI114
F1.2039824953732037
sI115
F0.26785716235009893
sI116
F11.435282671967702
sI117
F0.035146938324431609
sI118
F0.88574020169491252
sI119
F2.4127748953889192
sI120
F7.1059091824534688
sI121
F1.8330446548068133
sI122
F0.47434510350893344
sI123
F-1.9011428067442511
sI124
F9.1860406821281337
sI125
F0.83997435421856625
sI126
F1.7704868906748397
sI127
F-1.4924909567329276
sI128
F2.1256665569998896
sI129
F0.12195406975007383
sI130
F2.4353388074804281
sI131
F0.38028168653352434
sI132
F1.1783382410182091
sI133
F1.2391706133797262
sI134
F0.501656899111949
sI135
F-1.710584502031228
sI136
F0.27762717475211307
sI137
F-0.99109702788664311
sI138
F1.2132132372466735
sI139
F6.8353227323155279
sI140
F8.4253707491428873
sI141
F1.9574192869355747
sI142
F5.1295863361746372
sI143
F0.84846202773470836
sI144
F-2.3095084685726821
sI145
F0.70260144787403522
sI146
F-0.044481740910544687
sI147
F1.0436207733271745
sI148
F-0.44154553777612726
sI149
F1.1834886107085154
sI150
F8.0623278205903297
sI151
F1.1755501579998722
sI152
F-0.57841563204948443
sI153
F-3.4070399707312751
sI154
F5.5030681694869523
sI155
F0.24416548528917215
sI156
F0.92804945717999576
sI157
F1.2179239771470831
sI158
F0.66860658171670462
sI159
F8.0794602626030816
sI160
F14.712856407677478
sI161
F0.26609087168859169
sI162
F0.40596793760370176
sI163
F-0.69347259181701482
sI164
F1.0837991520485977
sI165
F1.8197114761498563
sI166
F-1.2247517015844398
sI167
F-2.3110618431470291
sI168
F1.3256001047328008
sI169
F4.607773750882874
sI170
F2.1278079064382869
sI171
F-0.38311247724532382
sI172
F0.42502627051803987
sI173
F1.3007501110865549
sI174
F-3.0124017638229894
sI175
F0.28492724662554636
sI176
F-1.7062624541944693
sI177
F7.8541456691610012
sI178
F15.001539404620875
sI179
F-0.67072119498446359
sI180
F0.36146836029600848
sI181
F-0.53750556808686767
sI182
F-1.0881588569088558
sI183
F0.60813176569548322
sI184
F-0.16211153499028175
sI185
F0.39566064587269612
sI186
F1.104685988313336
sI187
F1.5450356812135349
sI188
F-0.77914013292569795
sI189
F2.4409530336285332
sI190
F0.11686308336593054
sI191
F-0.13914921477551889
sI192
F6.6607895019904957
sI193
F2.5425142660296096
sI194
F-2.248426924129733
sI195
F-1.1883598031262883
sI196
F-1.2824260925810593
sI197
F1.6145322464481762
sI198
F1.140845834666651
sI199
F-2.0978951651112823
sI200
F0.57895260263191606
sI201
F0.60939511809114144
sI202
F-0.85486510609387523
sI203
F0.49678835290042667
sI204
F-1.8523916877728945
sI205
F7.2793601381412012
sI206
F1.5659842145230201
sI207
F-1.4330638107200571
sI208
F-0.15642155175611183
sI209
F-0.4563757204728649
sI210
F2.5976084668669914
sI211
F-1.8029019301190239
sI212
F6.6451889483792037
sI213
F4.8675439268583354
sI214
F0.90679246055072582
sI215
F5.0969525886048803
sI216
F-4.171380639794581
sI217
F-0.43457437871042615
sI218
F11.482839372764504
sI219
F0.57468148353410964
sI220
F-0.98727903817904838
sI221
F0.67313274435202342
sI222
F0.93160764121603723
sI223
F9.3946171753747478
sI224
F0.59147058454039048
sI225
F0.5804307794526089
sI226
F-0.71651258396956763
sI227
F8.5934985346522588
sI228
F0.070454654023769159
sI229
F0.24432796540989976
sI230
F1.8479878975862336
sI231
F0.31923201073156271
sI232
F10.239868202640045
sI233
F13.817833403237714
sI234
F11.092288314072857
sI235
F0.88744053996219296
sI236
F9.9120223874519997
sI237
F0.46490770977439411
sI238
F3.2309821430526346
sI239
F-1.4013422237950435
sI240
F0.16289519966722388
sI241
F4.6139816028201137
sI242
F-1.8852650163067288
sI243
F6.1779074880654896
sI244
F10.260202628166812
sI245
F-2.2596554547923313
sI246
F0.59266780588281076
sI247
F-2.5901147899171617
sI248
F4.5589507448137265
sI249
F1.7117624406479948
sI250
F1.1324983807834963
sI251
F0.77194150034141096
sI252
F11.206874024024904
sI253
F1.8357960331465248
sI254
F-1.1820639743369812
sI255
F0.91592203272354489
sI256
F4.2557319058083776
sI257
F5.8035971582260704
sI258
F-3.2806903063941322
sI259
F7.7174251218369738
sI260
F-1.9871528259490923
sI261
F0.54091883945011876
sI262
F1.0150576359060279
sI263
F0.35196982526398557
sI264
F-1.0039698929388337
sI265
F0.54680617329004644
sI266
F13.036471084258647
sI267
F0.57709785302642036
sI268
F13.303919902203081
sI269
F0.58116014968603125
sI270
F-1.5388447347106506
sI271
F8.9383812983626871
sI272
F-1.764493911442103
sI273
F1.571390706471373
sI274
F-1.5616122745467846
sI275
F-0.28262482457214233
sI276
F-2.1610604172636974
sI277
F0.21769129772556983
sI278
F-2.2417496697120836
sI279
F-3.3752493279948697
sI280
F-1.7313939835312295
sI281
F-0.13556763140694628
sI282
F0.91045338081675364
sI283
F0.058329665825639587
sI284
F-1.309771776822874
sI285
F-0.53553809668243169
sI286
F-0.82237690879058167
sI287
F-3.1520232576016394
sI288
F1.0715047328546108
sI289
F1.2217565870245348
sI290
F4.2122300595418665
sI291
F-1.1179817947652984
sI292
F0.30600661916170235
sI293
F-0.037170744418721036
sI294
F1.2529989225071381
sI295
F0.82010255905107865
sI296
F-0.5590505037884359
sI297
F-1.5468808749298404
sI298
F-1.1361648270261409
sI299
F1.0225279496133455
sI300
F-1.7560613237081277
sI301
F0.71331401406493189
sI302
F1.0698097665521775
sI303
F1.2469283144105052
sI304
F-1.61677264971929
sI305
F-1.7592838343676753
sI306
F-3.5945071400330182
sI307
F-0.88381177713305359
sI308
F-1.3031054369286839
sI309
F0.78185620448969839
sI310
F-1.2174790167855711
sI311
F-3.1095542738502946
sI312
F-0.40064002790791875
sI313
F-1.3765361395793576
sI314
F0.74326564873709433
sI315
F-1.9489905446214202
sI316
F0.79792346153397187
sI317
F-2.0124192072687688
sI318
F0.3693766376696157
sI319
F-3.8642190642357201
sI320
F6.826547993279017
sI321
F2.8256027345370471
sI322
F-1.4765794844522127
sI323
F1.0502730455766827
sI324
F-0.88056020146070413
sI325
F6.7963540748411573
sI326
F20.433586968117616
sI327
F-0.80726496110908652
sI328
F-6.9760925863775176
sI329
F-1.7493859042376583
sI330
F9.4255221533923574
sI331
F0.11018629028083193
sI332
F-2.5904642943549669
sI333
F9.7261469714475215
sI334
F5.0029201712378644
sI335
F7.872261603453242
sI336
F-2.3114521733681404
sI337
F-1.7825707221924141
sI338
F-0.029762973041473018
sI339
F-2.0421943026179363
sI340
F11.54773959324789
sI341
F-2.3434355525097841
sI342
F8.7648830361030932
sI343
F-0.050614390344799531
sI344
F6.5194289167676844
sI345
F-3.1716217255047434
sI346
F6.3183671246494928
sI347
F1.0864391653535277
sI348
F4.0541975700263393
sI349
F0.84668538870965726
sI350
F-3.6910531816024479
sI351
F12.095083321582013
sI352
F4.0939969201769175
sI353
F-1.1429112779971788
sI354
F3.9755880077894554
sI355
F-0.52091326074906963
sI356
F3.0712839514925312
sI357
F-1.3630952077550811
sI358
F8.8235779818719244
sI359
F-2.178569668381412
sI360
F-1.8922176956985322
sI361
F-2.8742248761609765
sI362
F12.541402998220878
sI363
F9.3187829494664705
sI364
F-1.3948862759417224
sI365
F7.2582663799065799
sI366
F-1.9205255259945071
sI367
F1.0219971681277595
sI368
F-2.9177354488690312
sI369
F-0.95919024151766497
sI370
F-0.019082987605064439
sI371
F8.9365074825523436
sI372
F-2.5521704320864851
sI373
F-0.41834044552756922
sI374
F1.0426997844506509
sI375
F-1.0916436275640491
sI376
F0.74824096621022917
sI377
F-1.4873175750477001
sI378
F-0.92621962429247695
sI379
F10.793959473356304
sI380
F15.149792211611114
sI381
F12.374778919613725
sI382
F11.780218617512965
sI383
F10.326713646181915
sI384
F-4.8523958159885243
sI385
F-3.926969904092048
sI386
F0.091180664976392656
sI387
F-3.696119406953331
sI388
F1.1501643202981766
sI389
F-0.13601830306310614
sI390
F-1.6002766660141203
sI391
F-2.9556828108274793
sI392
F6.0938766050750433
sI393
F-0.52193840020898463
sI394
F0.76251957268304871
sI395
F1.1107865462282209
sI396
F7.4144565966183356
sI397
F9.2186104655574805
sI398
F12.306279329653048
sI399
F-3.990399460295361
sI400
F9.1094313053471119
sI401
F0.75387804252404944
sI402
F0.30043453311092261
sI403
F-3.0602609421510367
sI404
F5.7638351065517686
sI405
F8.753349566371579
sI406
F-0.7011982001348871
sI407
F0.39046114916573327
sI408
F-0.68063052305110094
sI409
F-1.8899831377388452
sI410
F4.0597133619904096
sI411
F11.976094158031529
sI412
F9.946034191878601
sI413
F10.049506555326445
sI414
F10.825810482957008
sI415
F-0.27836378669909134
sI416
F0.85288179694349253
sI417
F-5.4686137581230918
sI418
F-2.8926940702075461
sI419
F10.002672163875054
sI420
F7.0577564584109194
sI421
F-1.3991341058335491
sI422
F8.7367208627127368
sI423
F-2.3706211208015366
sI424
F-0.39404265045236553
sI425
F-0.99798439952652274
sI426
F-0.646419996249743
sI427
F2.9416696100011643
sI428
F6.1032742680136991
sI429
F-1.1528261965165898
sI430
F4.0752744295764263
sI431
F-2.8139021476195296
sI432
F-2.0671432806428074
sI433
F-0.21204699921764192
sI434
F0.51527628385310908
sI435
F5.5727825955339458
sI436
F8.931858699129247
sI437
F-2.7760122870045718
sI438
F-2.1338661469043494
sI439
F5.9712090621667162
sI440
F-1.8379413014047374
sI441
F-0.27227465401819106
sI442
F-2.5779969231786639
sI443
F-7.0833560346340896
sI444
F37.76538928506352
sI445
F8.7481104417776976
sI446
F3.5261199756465711
sI447
F-3.8447239524886232
sI448
F17.22714172228654
sI449
F7.0769000643519657
sI450
F1.7311279198032201
sI451
F0.46534526202271564
sI452
F8.0120968097351124
sI453
F-0.098861420362884367
sI454
F-1.0093994127228569
sI455
F0.75238772693994438
sI456
F-1.4687752359506652
sI457
F1.1691246830022335
sI458
F2.913617632919177
sI459
F-1.8352868578821528
sI460
F-8.8682058388621918
sI461
F2.5781326051362221
sI462
F-1.5328987534824092
sI463
F9.1286086151643246
sI464
F3.457651868612464
sI465
F-1.2539980541389859
sI466
F-1.2275985392266406
sI467
F9.6395834864205732
sI468
F-3.4372303595156195
sI469
F-1.6324030045164895
sI470
F0.7417381247719641
sI471
F6.0199445814907335
sI472
F7.2975745235152782
sI473
F-5.4572164024563472
sI474
F13.013494387085789
sI475
F-1.9519949641607219
sI476
F-3.3709330235954722
sI477
F1.4818642318394906
sI478
F-1.6611091118486572
sI479
F-1.5401043009181183
sI480
F1.7069307471695456
sI481
F-0.22935635690368539
sI482
F-2.5797964716022106
sI483
F-2.9681475651020222
sI484
F-2.3335214087319756
sI485
F-0.99718354161935885
sI486
F-0.58351888757376003
sI487
F-0.48893053880183146
sI488
F-1.6248983598772408
sI489
F-0.89051138287155318
sI490
F-4.3276470534040712
sI491
F-2.4942100455927347
sI492
F6.0072863209788041
sI493
F-2.4942732645149848
sI494
F9.9098825560269752
sI495
F-1.6668204667889812
sI496
F2.4232844131941729
sI497
F-1.3840399845165923
sI498
F-1.2322314887766979
sI499
F7.5678099436534989
sI500
F-1.0714321739928829
sI501
F-4.4999338384538463
sI502
F3.1484908644623042
sI503
F-3.9494518691181941
sI504
F-1.4292897123220971
sI505
F3.9535713211246541
sI506
F4.2486320727547922
sI507
F5.5113939900494255
sI508
F13.36993647395672
sI509
F-1.8779278367940293
sI510
F-0.23446994719738612
sI511
F2.800054808507296
sI512
F8.6659099505866521
sI513
F-2.4511127650858109
sI514
F3.9945056759775763
sI515
F2.9171867277473122
sI516
F5.7546007917484419
sI517
F-0.70471565213603427
sI518
F6.4264935843448914
sI519
F5.4008847164328406
sI520
F-1.4733434297339887
sI521
F-0.26234266979919951
sI522
F-0.56395998978122375
sI523
F7.7388880635718031
sI524
F-3.8248327872100436
sI525
F-1.1921566112126145
sI526
F-2.997260958678873
sI527
F0.029805144771479775
sI528
F-2.8465894886209107
sI529
F-1.3387774850135159
sI530
F-0.84904990981008499
sI531
F-3.3026500321224077
sI532
F0.77536802488197987
sI533
F11.481077503950349
sI534
F-0.7321676033661122
sI535
F-3.9437786835610948
sI536
F0.39355218493465394
sI537
F2.697096277421668
sI538
F6.3001849011756059
sI539
F4.8498822735875908
sI540
F9.1640309649697667
sI541
F3.1228150103131456
sI542
F-1.3290970174429706
sI543
F0.099874492133753989
sI544
F-2.6218871533669965
sI545
F4.0621145010418269
sI546
F5.1356209122734331
sI547
F3.0285699516018099
sI548
F-2.2276677726382337
sI549
F4.9805848620645561
sI550
F-2.7007475944427135
sI551
F-2.4378536771788637
sI552
F-1.949321333839408
sI553
F-3.2256827406150039
sI554
F6.8820032917008955
sI555
F7.6879671186494924
sI556
F-1.8189173954459124
sI557
F-0.85210100949231826
sI558
F10.474471451825824
sI559
F-3.3308789549019986
sI560
F-3.7768669179526055
sI561
F14.908069188776238
sI562
F1.4993244362288936
sI563
F5.3169705924835799
sI564
F5.1193971554224502
sI565
F2.2731436110446497
sI566
F-4.2435652307304128
sI567
F-3.5291726921056537
sI568
F-2.9611708528140328
sI569
F5.0831635580808143
sI570
F-2.1662070790611319
sI571
F6.2582738221770384
sI572
F1.4786381938475488
sI573
F-0.88268543393409171
sI574
F1.7276568058957809
sI575
F1.3103165659900133
sI576
F-0.18469027197253585
sI577
F7.4230908921225121
sI578
F3.7869997059243756
sI579
F4.8605578968418657
sI580
F0.50088501722055589
sI581
F-3.3606990398712302
sI582
F-1.9130941623306343
sI583
F-0.22213888821143346
sI584
F14.428700069778031
sI585
F9.0107144368010061
sI586
F4.8507791123999668
sI587
F9.7214762831304711
sI588
F0.5783049092347845
sI589
F4.4254404971835921
sI590
F7.2765276217348216
sI591
F-4.1378075284771754
sI592
F-1.1847436692579159
sI593
F-2.7253951868880755
sI594
F-0.5061838525020157
sI595
F-1.5998572181156021
sI596
F0.011302304959183385
sI597
F7.1941582217098663
sI598
F-3.9087303622689866
sI599
F3.028855677793171
sI600
F-0.13091019344629817
sI601
F-1.4415187457013001
sI602
F-4.0969943813863443
sI603
F-1.6272897226686727
sI604
F-0.95202333273172357
sI605
F-1.0301774410035103
sI606
F4.2155934160670068
sI607
F-2.3240844694303631
sI608
F-2.5172730446221872
sI609
F8.0023018183944838
sI610
F5.1408682918193733
sI611
F-0.98559555822806466
sI612
F-5.2070272301906853
sI613
F-1.2044391167528365
sI614
F7.714016663211428
sI615
F-1.5486777185671743
sI616
F7.1409581238593631
sI617
F-6.7719279390874876
sI618
F0.25514522914252202
sI619
F2.3416193979239743
sI620
F4.0484774379376738
sI621
F2.0153352137081875
sI622
F-1.7297228236581965
sI623
F-2.460462559570848
sI624
F8.2377368827332091
sI625
F-0.10384213989953306
sI626
F-0.55941800649095441
sI627
F-0.82601645907874044
sI628
F0.13958473176763952
sI629
F-2.121484049046841
sI630
F-1.1524621639921113
sI631
F-2.5536650348463947
sI632
F2.6056252883062738
sI633
F9.2433326917667813
sI634
F-2.6222064583624798
sI635
F-1.8857051309008783
sI636
F-0.9714745328123211
sI637
F-0.92316885816838923
sI638
F0.0072893359224153187
sI639
F-3.5642840978472705
sI640
F5.0730556693105298
sI641
F-2.5048974113989502
sI642
F-2.3014665792194338
sI643
F3.1288191967881991
sI644
F-2.494913370650667
sI645
F6.2958170235884383
sI646
F4.3707613521215851
sI647
F6.7188263316112602
sI648
F-4.2714130575261375
sI649
F-2.2771767385193309
sI650
F0.45733105394619677
sI651
F5.1918024068461257
sI652
F-0.49170493799300274
sI653
F6.6222521291395564
sI654
F-3.8961583885629985
sI655
F-4.0124581549929523
sI656
F6.8583919260809694
sI657
F-1.9281587455928824
sI658
F-2.3055758858468529
sI659
F-1.125830584000445
sI660
F8.5490577284690659
sI661
F-3.1574195794531068
sI662
F-3.1990810944204462
sI663
F-8.3517312446952978
sI664
F4.4961795599969516
sI665
F4.1117218738299339
sI666
F-2.3365193674073756
sI667
F3.9175810812200131
sI668
F-3.6821373120819798
sI669
F-0.24483442307376535
sI670
F0.43562789829127846
sI671
F-2.7498246420607204
sI672
F-1.9900166104132389
sI673
F-0.051521468080736987
sI674
F-0.50418374186061143
sI675
F2.9332470546537239
sI676
F-0.508765365019892
sI677
F8.9521136103919261
sI678
F6.9832548896860773
sI679
F-5.0212923070446411
sI680
F-4.1476290836519727
sI681
F4.1015543263412129
sI682
F5.4248340380329969
sI683
F7.9435395895582825
sI684
F-1.9959054885078471
sI685
F18.997664058843007
sI686
F4.3217538382792364
sI687
F-3.5774420775348563
sI688
F0.78515819972673917
sI689
F-2.9781100213435998
sI690
F-1.2607131394234772
sI691
F-4.3062542112939806
sI692
F0.40835830696225006
sI693
F0.17977730427266359
sI694
F-0.89489897553019127
sI695
F1.3307809670656292
sI696
F0.6001230964997859
sI697
F-4.810130473322265
sI698
F4.5646565533422274
sI699
F-0.36756306874005151
sI700
F-0.86172345132264638
sI701
F-3.0501476758542516
sI702
F-4.2185658183415216
sI703
F-0.66653121409870852
sI704
F-3.3539000226531046
sI705
F11.258312637964218
sI706
F-2.5001294693405214
sI707
F7.1644994130037638
sI708
F2.9853713746119479
sI709
F-4.281600328880641
sI710
F-4.2448050535705306
sI711
F6.7435388530423293
sI712
F-3.8860909593870669
sI713
F-3.3931428687531833
sI714
F0.88011308605363192
sI715
F-2.538693883391014
sI716
F2.9275751918202779
sI717
F-2.5108157593576079
sI718
F8.9078235875722278
sI719
F11.059624296450643
sI720
F-5.5708754646673162
sI721
F-2.674128958890563
sI722
F0.013378059691246058
sI723
F3.9264223518415964
sI724
F4.1738978224840153
sI725
F5.3436094021984202
sI726
F37.788423492324284
sI727
F5.1698962276019351
sI728
F2.894460623989592
sI729
F3.2271606699575575
sI730
F0.33728123576445324
sI731
F37.845886144066796
sI732
F-2.2239012380375334
sI733
F-0.99128892429341686
sI734
F4.8500392317794248
sI735
F-3.2735785267104625
sI736
F8.1872587163756272
sI737
F1.9230183583097453
sI738
F3.3315097205794526
sI739
F1.2698936710997257
sI740
F-5.2020102886306292
sI741
F-2.5908643331850634
sI742
F-1.085368837211214
sI743
F3.0797897112336203
sI744
F1.4838503078561436
sI745
F-3.082028079396439
sI746
F-0.9868156960515817
sI747
F-1.4163821276530246
sI748
F0.003140564590509598
sI749
F-4.6981342882396415
sI750
F-3.1056423634379922
sI751
F3.796206235232952
sI752
F-1.6744006274076293
sI753
F8.745128436770834
sI754
F2.754800174572785
sI755
F0.95527816386703801
sI756
F-4.5120034613152766
sI757
F2.9982016961245952
sI758
F8.1854656252369224
sI759
F2.6381979259559332
sI760
F-2.3668952556410794
sI761
F-3.7198596679373503
sI762
F-1.9339351236228426
sI763
F4.9494664807528261
sI764
F-3.3275639902486427
sI765
F4.1578083875445193
sI766
F-3.9238940242094573
sI767
F11.904691510065049
sI768
F-4.5505758270349199
sI769
F-3.0216576192770708
sI770
F-4.5240157499707143
sI771
F1.8113021768395474
sI772
F5.6075138098781396
sI773
F8.1140642964299516
sI774
F4.3900619851265592
sI775
F-2.4272163017139983
sI776
F2.8655793787849682
sI777
F-2.0700255790198892
sI778
F-0.018507277168824388
sI779
F-3.5471654003104778
sI780
F4.9631120287409294
sI781
F-1.3775559384782845
sI782
F-0.15791787053092055
sI783
F0.34212316475624815
sI784
F-0.65546408284488367
sI785
F4.5369201272751543
sI786
F6.1233121543757765
sI787
F6.6936635578780619
sI788
F3.8986466105418849
sI789
F0.94845429186359675
sI790
F2.1827985392250522
sI791
F-1.8179686931545662
sI792
F3.6125154141757108
sI793
F1.0577106485458114
sI794
F2.78287101512612
sI795
F-2.3436509720426635
sI796
F17.239626096303784
sI797
F-4.0257631503889284
sI798
F-0.26781490070405445
sI799
F-2.4251264797912686
sI800
F6.3437626173495989
sI801
F2.5714633832643532
sI802
F4.8393736066251476
sI803
F1.4757057080757709
sI804
F4.9008565958091337
sI805
F-7.5360434283170958
sI806
F-1.8773765762517929
sI807
F-4.070503002628227
sI808
F1.24754201052356
sI809
F-0.48471772478935726
sI810
F6.4116166058916262
sI811
F2.4483535709834516
sI812
F-0.42245570918094622
sI813
F5.7150628005473765
sI814
F0.81570728567024187
sI815
F3.2074581109461491
sI816
F3.6419933101302444
sI817
F-4.9656232014408035
sI818
F5.3021369852057632
sI819
F-5.9340246013994138
sI820
F4.3462123071364411
sI821
F2.5060793977041307
sI822
F-4.2460275962567211
sI823
F-4.2920159575656562
sI824
F-3.208196111707065
sI825
F-3.2884698049565202
sI826
F5.8763480016951943
sI827
F-2.0158168899250848
sI828
F2.3925615954070274
sI829
F-4.9247900454557936
sI830
F-2.333439352480065
sI831
F4.8479209289418641
sI832
F-4.9731145597619255
sI833
F2.3174391479672742
sI834
F-3.4657796608903482
sI835
F0.30111093750500739
sI836
F5.9283016281245162
sI837
F4.4591255925554627
sI838
F4.9467118308239906
sI839
F7.0472532731952811
sI840
F2.3311386500856948
sI841
F8.7327744103561002
sI842
F-1.6994383386741161
sI843
F1.3094946071950795
sI844
F-0.28043187870961805
sI845
F0.10185904100710363
sI846
F7.507019302570848
sI847
F-5.3130946196981892
sI848
F-3.6432729796076639
sI849
F9.5446908336666816
sI850
F-0.15467766399189298
sI851
F3.445767198199106
sI852
F2.98098023715837
sI853
F-4.4411322788595342
sI854
F2.5495035742373746
sI855
F-0.067168866000566929
sI856
F-0.78881853408483593
sI857
F-0.71250734174323949
sI858
F7.8234091649978339
sI859
F-0.25549034347601474
sI860
F-4.706489549414103
sI861
F2.9598117757896398
sI862
F1.4416735586347826
sI863
F5.3975309990689579
sI864
F-0.29284522595201068
sI865
F-2.2833021284056585
sI866
F-4.428769550750447
sI867
F6.5398711833486791
sI868
F5.7780147347958275
sI869
F4.9144394875696387
sI870
F0.84342421686521796
sI871
F-1.4546489107195981
sI872
F-3.1456041362055025
sI873
F5.5401819643276164
sI874
F4.6004931314768598
sI875
F-2.7708659170196928
sI876
F6.2939634111611129
sI877
F-2.6167795133433502
sI878
F-1.7920748611140542
sI879
F5.6586838526353196
sI880
F3.6019510213372392
sI881
F7.1114784095935484
sI882
F-4.3210833737563625
sI883
F-0.71488433983860755
sI884
F1.3830079303995788
sI885
F0.34670007864962571
sI886
F-0.74651768378572836
sI887
F5.3539494560593264
sI888
F7.1235580464534234
sI889
F37.926658605702883
sI890
F1.9607108777760844
sI891
F-1.8839511773318796
sI892
F-0.97926306582355949
sI893
F-2.3868292048621464
sI894
F-0.026715300543891374
sI895
F-2.0709031333389687
sI896
F-3.0273216994281364
sI897
F-4.7811595994775953
sI898
F7.1699115575609973
sI899
F3.364229360697518
sI900
F2.5001201553456855
sI901
F4.5404365253474008
sI902
F0.55740523604462
sI903
F-4.9440318046565723
sI904
F-1.7695125338286504
sI905
F12.717221150163326
sI906
F8.1648010312740666
sI907
F0.066130419818249742
sI908
F0.39557220697573747
sI909
F-3.4350890781272607
sI910
F-5.1388733939819113
sI911
F4.2054704266118081
sI912
F-2.213169662945627
sI913
F3.2511043255463248
sI914
F-0.5301488126467051
sI915
F-0.65719852061221129
sI916
F-0.67677825601699038
sI917
F-0.85692876792520067
sI918
F4.8514835494732536
sI919
F-2.4588794775576561
sI920
F-3.9366493538391545
sI921
F-2.6281488328706244
sI922
F2.5809776053743239
sI923
F6.9728256956495169
sI924
F2.8900384246325208
sI925
F-3.2890137953576604
sI926
F2.1899978370272875
sI927
F8.7058737742386185
sI928
F-5.0759644681042877
sI929
F-5.3416221283194787
sI930
F4.4622197985824696
sI931
F-4.4433225073512856
sI932
F5.5032995257015536
sI933
F-1.7308859215718293
sI934
F-4.6984904745696996
sI935
F3.7740704421626572
sI936
F7.737457593587008
sI937
F14.65597020695504
sI938
F-5.7774648867149825
sI939
F7.2140815856804545
sI940
F-4.6542804856781466
sI941
F-4.4134815137788914
sI942
F4.7835561117501362
sI943
F-0.0112123148080574
sI944
F-2.9547674979460705
sI945
F-3.3259276523485539
sI946
F-2.2951627856399694
sI947
F3.7974751164436604
sI948
F15.658487237910638
sI949
F-2.219453543665928
sI950
F0.17663303833026944
sI951
F-0.23170503842373957
sI952
F0.35418302315488237
sI953
F-5.0628032097649722
sI954
F9.5779833243606696
sI955
F7.2435273936678772
sI956
F-2.5665303229902836
sI957
F0.017923905284962238
sI958
F-4.5237871028888748
sI959
F-0.12739107652042314
sI960
F5.8258578062011468
sI961
F-3.4574892384154587
sI962
F5.7211921413957381
sI963
F-4.1179218492981162
sI964
F4.1606643960599952
sI965
F4.737732041588524
sI966
F0.67950930008381327
sI967
F-3.2417810732865959
sI968
F-0.46515464606503976
sI969
F2.8151825426667418
sI970
F-1.5438782707020442
sI971
F-5.3522073983565317
sI972
F5.858035661697147
sI973
F-3.0979810052970018
sI974
F-3.1518956165109673
sI975
F8.719163050089751
sI976
F-0.19361927053174277
sI977
F-4.963964585075944
sI978
F-3.8723434748282237
sI979
F-3.0779519601144631
sI980
F-5.9634201687825934
sI981
F-4.0256865627822975
sI982
F-3.5724099421249242
sI983
F-4.0930998446488953
sI984
F8.9564618354142844
sI985
F3.2704620403833227
sI986
F-4.8451415651885172
sI987
F9.8078920539398187
sI988
F-2.9701639459338143
sI989
F3.2644318833002943
sI990
F2.336013046705026
sI991
F-3.1080424839928451
sI992
F1.9793850554244647
sI993
F-4.099666547885696
sI994
F-4.3674693962462676
sI995
F-1.9362446680444716
sI996
F0.88514861123888089
sI997
F-4.6222093458427445
sI998
F0.053245421897921918
sI999
F4.6786168736527012
sI1000
F4.3540650195090533
sI1001
F-6.2465873056859218
s.