(dp1
I0
F0.21729770806036797
sI1
F8.5828050199752219
sI2
F-6.9256002731533606
sI3
F-6.6382789776382687
sI4
F-6.9678765067636297
sI5
F-6.8236208886972189
sI6
F-7.0188515870843027
sI7
F-6.3706666311403168
sI8
F-6.9310701745924312
sI9
F6.846546073110062
sI10
F-7.1924932455669923
sI11
F-6.5941391533118434
sI12
F-6.8301784185188161
sI13
I0
sI14
F-16.158422950126901
sI15
I0
sI16
F-8.9825891030271272
sI17
F-12.412447767303458
sI18
F0.75764551527525814
sI19
F0.18366427964494902
sI20
F-11.366279578333526
sI21
F-16.491408723258523
sI22
F-13.580411096934947
sI23
F-14.489806167406423
sI24
F-12.535022545668546
sI25
F-14.150240903814028
sI26
F-11.724100251209219
sI27
F-0.5736211130971256
sI28
F-14.016046655284729
sI29
F-8.0947857276887447
sI30
F-8.0530680040663896
sI31
F-11.679577473969687
sI32
F-16.246716842065968
sI33
F0.26790563074722318
sI34
F-4.5104641273094241
sI35
F-16.291104640030305
sI36
F-14.155224807757623
sI37
F-17.028489790997746
sI38
F-11.47340335687247
sI39
F-16.759043593132024
sI40
F-1.5067210495883405
sI41
F-14.46338761576248
sI42
F-12.210571682712096
sI43
F-3.3853245121803033
sI44
F-12.885127533016187
sI45
F-11.439763674290234
sI46
F-15.821427643536751
sI47
F-5.4072357492567686
sI48
F-10.825281641622979
sI49
F-16.276959599372979
sI50
F-15.801410137110945
sI51
F-0.40030750252490499
sI52
F-1.3351584749625349
sI53
F-13.368636215549506
sI54
F-14.815707770757705
sI55
F-15.298067096267792
sI56
F-13.307664547418824
sI57
F-5.9757907225851357
sI58
F-12.367227678788936
sI59
F-4.3506271476918084
sI60
F-16.429389904837247
sI61
I0
sI62
F-14.252535745502758
sI63
F-12.114094777079004
sI64
F-3.9193114977830756
sI65
F0.7964592595427975
sI66
F-17.136243003565117
sI67
F-12.103027688257459
sI68
F-13.426613596915729
sI69
F-15.600945278782113
sI70
F-0.27220615678561
sI71
F-11.10831638233949
sI72
F-1.1754593625262419
sI73
F-14.34263400338615
sI74
F0.64492403114537034
sI75
F-6.5840633082095845
sI76
F-14.076251232831295
sI77
F-15.604410519821593
sI78
F-7.3813900204578919
sI79
F-11.42131676485042
sI80
F-15.00245336363583
sI81
F-0.94713111135396755
sI82
F-15.377406230331843
sI83
F-11.229392446472012
sI84
F-11.436241913458069
sI85
F0.31825919589232221
sI86
F-13.563340381678419
sI87
F-1.0370235636302993
sI88
F-14.584610141717924
sI89
F-14.803511503265788
sI90
F-16.339449602190854
sI91
F-11.251305575104574
sI92
F-0.55187672994281289
sI93
F-1.0131243598034836
sI94
F1.0491302129584783
sI95
F-13.641736414535757
sI96
F-16.305230762769767
sI97
F-16.256426078016133
sI98
F-17.079049821752388
sI99
F-9.8813505455319905
sI100
F-14.423301255408937
sI101
F-14.811397473074857
sI102
F2.2007293640632364
sI103
F-14.723124093070037
sI104
F-13.698680808273389
sI105
F2.5521193877163322
sI106
F0.2568681034195146
sI107
F-15.595364694633963
sI108
F-15.811441149556581
sI109
F-15.028579649707366
sI110
F-4.5051300844634028
sI111
F-12.035442032559608
sI112
F-15.516767982438822
sI113
F-13.49549088860568
sI114
F-14.718528669504302
sI115
F-11.875355348935926
sI116
F-11.607335669098349
sI117
F-16.556118793633956
sI118
F-14.245282903865508
sI119
F-11.344908364924832
sI120
F-4.9504297466140805
sI121
F-11.523237332697269
sI122
F-11.550191510897246
sI123
F2.731202170207883
sI124
F-16.782566142088577
sI125
F-16.841809439044837
sI126
F-14.700519051630678
sI127
F-16.084710420213952
sI128
F0.27775111605402536
sI129
F-12.487925706083541
sI130
F-13.619041086729027
sI131
F-11.901470683211254
sI132
F-15.941805038243697
sI133
F-14.193348218991103
sI134
F-16.23470433441469
sI135
F-11.630031608067924
sI136
F-7.0918457559102448
sI137
F4.1062527270039135
sI138
F-13.466233767252778
sI139
F-15.105116971675695
sI140
F-15.007979385908943
sI141
F-11.487298230693028
sI142
F-16.052317455064237
sI143
F-10.452689303988871
sI144
F-13.416319492359428
sI145
F-15.193410651870487
sI146
F-15.910963247436779
sI147
F-12.444724074384732
sI148
F-11.201021223999453
sI149
F-17.073389878958309
sI150
F-16.350706658981462
sI151
F-16.243523934649616
sI152
F-13.042371579816866
sI153
F-14.154825721057074
sI154
F-12.441424187093137
sI155
F-16.746844928538877
sI156
F-11.681474388056017
sI157
F-16.270886682816009
sI158
F-14.448995958094379
sI159
F-13.435049960781544
sI160
F-15.853682107518921
sI161
F-12.689071084768745
sI162
F-17.017368739142565
sI163
F-11.94615498108622
sI164
F-13.242609954949817
sI165
F0.63698086079128657
sI166
F-11.981304402427529
sI167
F-15.197689056543179
sI168
F-3.7824714789764831
sI169
F-14.789933014312266
sI170
F-14.493387959593779
sI171
F-16.695574067167076
sI172
F-13.304612156865641
sI173
F-12.577475308767262
sI174
F-1.1922078480624432
sI175
F-12.79452207990818
sI176
F-11.052698403346799
sI177
F-0.58439456998477568
sI178
F-13.885297396295496
sI179
F-13.051082712840786
sI180
F-12.217283263027483
sI181
F-9.2042820741393001
sI182
F-14.551246390242072
sI183
F-16.847809349748427
sI184
F-15.146105985164169
sI185
F-11.776684035648882
sI186
F-11.067876762810254
sI187
F-11.28533146059576
sI188
F-14.25767089325592
sI189
F-11.598181509566416
sI190
F-12.553747185333696
sI191
F-12.477437531975875
sI192
F-15.769704964418048
sI193
F-14.554160157754358
sI194
F-11.932738767966416
sI195
F4.9819515859366019
sI196
F-12.174832274437598
sI197
F-15.448947656339811
sI198
F-11.850490690905755
sI199
F-14.008109774102156
sI200
F-2.8302477212123582
sI201
F-10.703064001484755
sI202
F-9.6353534373895364
sI203
F-10.699299686300225
sI204
F-11.096699992665751
sI205
F-11.286665346690476
sI206
F-4.9468093072933135
sI207
F-12.534990583175558
sI208
F-15.5807597282126
sI209
F-13.836224589466196
sI210
F0.64774747462513993
sI211
F-13.965963859340807
sI212
F-15.024580502912523
sI213
F-14.099310613456954
sI214
F-13.055957495716964
sI215
F-16.678494098154729
sI216
F-12.695542462864513
sI217
F-14.932727910837365
sI218
F-14.795628054502243
sI219
F-11.664143980652089
sI220
F-10.595051515775502
sI221
F-10.69417954922805
sI222
F-15.070835695240829
sI223
F-12.689970942300778
sI224
F-11.80567754123393
sI225
F-15.557629911952048
sI226
F-9.0410259313220518
sI227
F-16.350706658981462
sI228
F-13.765917615199037
sI229
F-11.664143980652089
sI230
F-11.218876305050967
sI231
F-15.754771372759226
sI232
F-13.831638791359204
sI233
F-14.164074317929449
sI234
F-11.76909972650984
sI235
F-15.781793192613183
sI236
F-13.116385992022021
sI237
F-12.237412625372631
sI238
F-13.045031854522875
sI239
F-14.446816995651456
sI240
F-16.167990497874182
sI241
F-11.96668556921164
sI242
F-15.676565097510732
sI243
F-10.92364071504684
sI244
F-13.264980436061622
sI245
F-14.649531572290778
sI246
F-16.260431755448217
sI247
F-13.625195349637657
sI248
F-13.429806398316304
sI249
F-14.986729642601855
sI250
F-13.099022684549045
sI251
F-11.721252149529512
sI252
F-12.108479356947942
sI253
F-12.936297378843438
sI254
F-14.027688613602592
sI255
F-16.678494098154729
sI256
F-11.596335602211045
sI257
F-13.56808483057365
sI258
F-15.448319324555602
sI259
F-12.347140651277847
sI260
F-11.288297293587945
sI261
F-15.247443529449239
sI262
F-13.096651365832098
sI263
F-11.072752685580912
sI264
F-14.011885857296985
sI265
F-11.390986006058448
sI266
F-9.5873305595004332
sI267
I0
sI268
F-11.686189083465646
sI269
F-9.2616411271786312
sI270
F-10.437938410565994
sI271
F-13.850827609856101
sI272
F-15.218349185836349
sI273
F-15.113354788125617
sI274
F-13.16553885985136
sI275
F-10.616669212549326
sI276
F-13.848224351861667
sI277
F-13.132745399172084
sI278
F-14.00238170403108
sI279
F-11.560537081236845
sI280
F-11.895718810338686
sI281
F-11.419057658973665
sI282
F-15.935779461180431
sI283
F-15.433022243059252
sI284
F-11.714104117701162
sI285
F-14.511271541526128
sI286
F-13.251971701811371
sI287
F-13.608487544786414
sI288
F-15.387287674988251
sI289
F-14.729571329714398
sI290
F-14.4998765958918
sI291
F-10.193753229956826
sI292
F-13.530700630620132
sI293
F-10.025400681426197
sI294
F-14.597939067063535
sI295
F-14.933281011894319
sI296
F-18.534062552587905
sI297
F-11.858224172645617
sI298
F-14.01026482500744
sI299
F-11.888270667422969
sI300
F-17.224125670215244
sI301
F-10.365918706744834
sI302
F-14.692181705724337
sI303
F-12.781117743095823
sI304
F-12.629753067350018
sI305
F-14.708852869731539
sI306
F-11.228985725457516
sI307
F-14.261048991180537
sI308
F-13.44103270025769
sI309
F-15.165515671979129
sI310
F-10.330084931113188
sI311
F-15.788920073902581
sI312
F-11.606586475792597
sI313
F-11.324827535729428
sI314
F-15.505277778460513
sI315
F-15.676334955413649
sI316
F-8.7663156746223887
sI317
F-13.530237468665426
sI318
F-4.934153587867196
sI319
F-12.289878359156551
sI320
F-14.222064585700108
sI321
F-14.482515163009538
sI322
F-15.735785255249677
sI323
F-9.026249724119209
sI324
F-10.260834732232119
sI325
F-12.968542444936315
sI326
F-15.670271816668286
sI327
F-11.775239409535697
sI328
F-10.480882576215091
sI329
F-15.282102425785549
sI330
F-15.109233066944515
sI331
F-13.257414471643017
sI332
F-10.43593343107192
sI333
F-9.9404154585042512
sI334
F-10.521666328404944
sI335
F-13.541660893415861
sI336
F-16.078303524528639
sI337
F-11.692688888139127
sI338
F-13.62440722725875
sI339
F-7.0625271306960888
sI340
F-12.247803457061838
sI341
F-10.314517514560286
sI342
F-14.283129806265666
sI343
F-10.691296763388618
sI344
F-13.803268910747583
sI345
F-13.75062113372374
sI346
F-10.777002297578695
sI347
F-12.938551163043222
sI348
F-14.740766356990051
sI349
F-13.371949866067618
sI350
F-5.5433150040327641
sI351
F-14.733666482586864
sI352
F-14.300492546644747
sI353
F-12.012832490500632
sI354
F-10.620148131322008
sI355
F-14.556504712396306
sI356
F-7.3929959035436745
sI357
F-16.317378308114776
sI358
F-13.560459797281707
sI359
F-14.056485674226003
sI360
F-12.503879969225935
sI361
F-8.5975658177073662
sI362
F-14.361290760113722
sI363
F-13.547365904745064
sI364
F-16.169479230806328
sI365
F-11.791164317192429
sI366
F-12.610501141742906
sI367
F-11.470727236311188
sI368
F-11.382563020991331
sI369
F-16.037687189337486
sI370
F-14.761048884931661
sI371
F-4.8173622763641983
sI372
F-14.514940520977555
sI373
F-11.058209787025273
sI374
F-8.9944786011803597
sI375
F-14.301116045176837
sI376
F-12.47353419140147
sI377
F-12.529093113491893
sI378
F-15.338142400429504
sI379
F-12.936297378843438
sI380
F-15.709833768804948
sI381
F-7.3100992199236607
sI382
F-11.23819958386116
sI383
F-7.5387943199553016
sI384
F-12.429611026578659
sI385
F-15.182282008324096
sI386
F-4.5535990585851724
sI387
F-13.481516527213202
sI388
F-12.764444800443894
sI389
F-9.3501883037187881
sI390
F-15.222546171875242
sI391
F-14.193362870603162
sI392
F-11.865849894520299
sI393
F-12.239965904688042
sI394
F-15.566465149380129
sI395
F-14.66492929203487
sI396
F-8.9895610730222266
sI397
F-11.527398395080631
sI398
F-13.274165826013313
sI399
F-14.453959767025399
sI400
F-10.545185900058762
sI401
F-14.555421877144822
sI402
F-7.8696975404886667
sI403
F-10.386533058674846
sI404
F-12.4513627447683
sI405
F-11.847006368827184
sI406
F-15.5445685229846
sI407
F-10.871446227947491
sI408
F-5.0675329605634847
sI409
F-11.411531029555988
sI410
F-8.5931877600813991
sI411
F-11.788205589179118
sI412
F-14.013342700340001
sI413
F-8.2695484075254093
sI414
F-13.415029114957669
sI415
F-10.825451726195428
sI416
F-13.391462128768623
sI417
F-10.496487226249346
sI418
F-14.368310105610945
sI419
F-14.493387959593779
sI420
F-11.173789274357372
sI421
F-15.236149777060898
sI422
F-11.660153774582319
sI423
F-11.990928222667279
sI424
F-7.4698138534720018
sI425
F-12.954804816778122
sI426
F-15.528358604204492
sI427
F-8.6404170933132249
sI428
F-13.383770753409394
sI429
F-4.5042338358732907
sI430
F-13.434814983985929
sI431
F-8.9820688900966985
sI432
F-12.257724719807616
sI433
F-12.907542563990839
sI434
F-11.914580282933565
sI435
F-11.056706047921285
sI436
F-13.683481621166388
sI437
F-12.713451315952069
sI438
F-10.87124252193834
sI439
F-10.73513450248895
sI440
F-7.1177762787063523
sI441
F-12.521963720594442
sI442
F-13.379528535867635
sI443
F-6.7776080868121724
sI444
F-14.241348156082566
sI445
F-12.127080089698655
sI446
F-11.038581152266211
sI447
F-13.562735875925267
sI448
F-7.8578268999257865
sI449
F-10.931393083567478
sI450
F-10.507626816285995
sI451
F-5.5983581081272522
sI452
F-12.937933027317108
sI453
F-12.745933984294521
sI454
F-13.900686816779032
sI455
F-12.818601608871296
sI456
F-7.9237047858506449
sI457
F-13.106531383334445
sI458
F-14.121345698669257
sI459
F-13.310184068563348
sI460
F-13.8936522223445
sI461
F-17.425542395299043
sI462
F-15.640137884366816
sI463
F-14.5130264944733
sI464
F-11.229653712254418
sI465
F-14.429866171542214
sI466
F-10.699299686300225
sI467
F-14.814001322014889
sI468
F-7.5043974224533514
sI469
F-15.611110054876711
sI470
F-13.466233767252778
sI471
F-8.676314457996817
sI472
F-12.702329811953506
sI473
F-5.6001916450057543
sI474
F-8.9429236485264294
sI475
F-14.657510154335467
sI476
F-17.560097970406602
sI477
F-10.14496394795785
sI478
F-10.616157905101524
sI479
F-11.088903980761545
sI480
F-10.432057764213766
sI481
F-10.499161994990713
sI482
F-14.991275752383601
sI483
F-14.444662469784237
sI484
F-14.109308432740811
sI485
F-13.364078835800733
sI486
F-8.9791727995324653
sI487
F-9.3450076160497098
sI488
F-9.3492913240549882
sI489
F-12.69238696554585
sI490
F-9.8172271562484319
sI491
F-14.289783729740815
sI492
F-7.5434185852398956
sI493
F-10.316582770017575
sI494
F-10.488077276729491
sI495
F-11.806720660647903
sI496
F-13.615075239075795
sI497
F-9.4696270810586256
sI498
F-2.9971707879823795
sI499
F-11.138882209172184
sI500
F-4.571244389144427
sI501
F-13.042732054758627
sI502
F-14.424589973636774
sI503
F-7.3156530474800681
sI504
F-12.310680365679074
sI505
F-10.603900073688948
sI506
F-11.582875148056466
sI507
F-9.1338421639625622
sI508
F-9.9524884304263566
sI509
F-11.534208793991766
sI510
F-8.7536974754640138
sI511
F-15.206278775229023
sI512
F-14.473872317838019
sI513
F-10.088983213301919
sI514
F-8.8792945088781465
sI515
F-14.988130264942189
sI516
F-12.810002726234966
sI517
F-11.290461640963295
sI518
F-15.18502504650883
sI519
F-13.599606485880404
sI520
F-10.772707763992281
sI521
F-4.692894932929077
sI522
F-11.201060035044341
sI523
F-13.246236873584557
sI524
F-11.534854817527533
sI525
F-14.608158142724054
sI526
F-13.774784270561794
sI527
F-11.507899989238785
sI528
F-10.204713092029913
sI529
F-14.194734435462523
sI530
F-17.457433548096116
sI531
F-5.9001576240865736
sI532
F-12.80606700074847
sI533
F-8.4459616582709387
sI534
F-10.643921181838859
sI535
F-11.259844985929849
sI536
F-6.9119290603647086
sI537
F-15.509484535589074
sI538
F-10.749045449662344
sI539
F-11.911739176036583
sI540
F-11.490563763175178
sI541
F-5.6666178862296688
sI542
F-6.0869840116652645
sI543
F-12.463438917718236
sI544
F-12.394221379731693
sI545
F-6.6862004981033865
sI546
F-6.1715661802544259
sI547
F-8.0994209235137298
sI548
F-14.388417508897998
sI549
F-13.848660531979331
sI550
F-13.934252190379596
sI551
F-5.8801674211704178
sI552
F-12.627184881437781
sI553
F-6.7152019203021185
sI554
F-11.211184039257116
sI555
F-14.214570559579105
sI556
F-10.234095506429281
sI557
F-13.353176112692733
sI558
F-5.5409606235346347
sI559
F-12.050686630309263
sI560
F-11.016237587079466
sI561
F-5.2709800219513259
sI562
F-9.7028955129419643
sI563
F-4.5535037323057548
sI564
F-8.3373677197346225
sI565
F-9.6536033721274119
sI566
F-16.60952390043385
sI567
F-6.9817206083790468
sI568
F-10.492531624455285
sI569
F-17.730011681311101
sI570
F-13.930308651343367
sI571
F-6.9216606888457903
sI572
F-10.147106233416054
sI573
F-7.5293184143472205
sI574
F-14.375646779287756
sI575
F-14.86877348598987
sI576
F-8.3433257238141003
sI577
F-13.644646317876404
sI578
F-10.18080215142237
sI579
F-8.0379327768766196
sI580
F-7.1450771621926998
sI581
F-11.949209232260129
sI582
F-8.3355405508790419
sI583
F-10.459777429768391
sI584
F-10.680465188712057
sI585
F-8.1524193370610725
sI586
F-12.058938512289979
sI587
F-8.8516009059741325
sI588
F-14.144413646421887
sI589
F-11.30238942342714
sI590
F-15.435363448627857
sI591
F-9.3233255487823623
sI592
F-7.50214266520479
sI593
F-8.3701691595952852
sI594
F-4.562008036175623
sI595
F-14.408924690726941
sI596
F-8.2132359750517114
sI597
F-9.0576029543395222
sI598
F-6.7668139040786359
sI599
F-11.209163111552106
sI600
F-7.4391312259158804
sI601
F-14.502029134314188
sI602
F-9.6874475842797541
sI603
F-10.237667822751739
sI604
F-9.1884406258496423
sI605
F-11.39835227144874
sI606
F-11.173830643283781
sI607
F-7.9489925355790687
sI608
F-10.339615830642405
sI609
F-13.735002190281838
sI610
F-7.096864582570392
sI611
F-16.754103252727628
sI612
F-6.5962580043241816
sI613
F-11.386437779176621
sI614
F-9.6392767224450537
sI615
F-11.683093599538559
sI616
F-14.142773036363332
sI617
F-12.333157356388931
sI618
F-10.452770994358925
sI619
F-10.985654414605589
sI620
F-5.4781507909348095
sI621
F-7.1496005686002508
sI622
F-13.681103950242203
sI623
F-8.4846756150827236
sI624
F-11.799764336983673
sI625
F-4.3088871132665956
sI626
F-14.827666632360357
sI627
F-13.322785615737207
sI628
F-3.5369556968779694
sI629
F-8.485345065095764
sI630
F-8.181277273464806
sI631
F-3.8841331274169937
sI632
F-4.2540963934876874
sI633
F-13.268736452718798
sI634
F-14.184819253999621
sI635
F-4.2021614443525328
sI636
F-4.4198153125337321
sI637
F-6.5093225568617026
sI638
F-10.371914191725132
sI639
F-9.6198996056655286
sI640
F-11.535997497928042
sI641
F-14.606835434476601
sI642
F-13.680786389482083
sI643
F-5.383907784808569
sI644
F-6.3608002311907121
sI645
F-13.067236732033663
sI646
F-13.342080673567366
sI647
F-11.477083405328369
sI648
F-7.8670858831716135
sI649
F-12.324928665513891
sI650
F-11.603592777647167
sI651
F-16.96499089784637
sI652
F-9.2072552389260061
sI653
F-2.940834735814426
sI654
F-6.8493900839306496
sI655
F-9.1713729904407266
sI656
F-3.9436053601565453
sI657
F-6.6762566908798755
sI658
F-5.8284144178750417
sI659
F-16.235927258202121
sI660
F-11.495611735540558
sI661
F-14.334396773333479
sI662
F-9.522617689504461
sI663
F-14.288146032823576
sI664
F-10.399658435761937
sI665
F-11.916527704271189
sI666
F-5.0599981524014614
sI667
F-13.314516189607726
sI668
F-8.2082912613889718
sI669
F-11.028089547894457
sI670
F-18.589418419959689
sI671
F-13.897165750753626
sI672
F-16.718946732933851
sI673
F-5.5427064135181281
sI674
F-10.406727520492499
sI675
F-3.9083435990712276
sI676
F-11.184369977219877
sI677
F-6.5040245557445768
sI678
F-2.408363941846857
sI679
F-8.8243774162411519
sI680
F-14.4526497370824
sI681
F-16.766412848157763
sI682
F-6.9208516161534925
sI683
F-17.66429201292841
sI684
F-6.047036394991137
sI685
F-12.330412468840958
sI686
F-7.8106249675265422
sI687
F-7.4496149725108127
sI688
F-5.8134467738683346
sI689
F-12.078336797368603
sI690
F-8.0422508768904599
sI691
F-13.546594566065803
sI692
F-10.531355484271852
sI693
F-15.943179947607268
sI694
F-6.374133704192813
sI695
F-12.574376895986674
sI696
F-13.487500556824671
sI697
F-10.363121423835242
sI698
F-9.8403162300499591
sI699
F-13.549205029417701
sI700
F-7.8075333785955854
sI701
F-15.982093127854911
sI702
F-14.578580722683569
sI703
F-8.8317748061904311
sI704
F-9.0619536328893631
sI705
F-6.9214610301745498
sI706
F-5.6092469080408422
sI707
F-10.257501291294368
sI708
F-8.6575722174876759
sI709
F-10.20069173750559
sI710
F-5.2798744714665728
sI711
F-6.3871791918004739
sI712
F-10.67266497256028
sI713
F-5.1048731990694201
sI714
F-10.338427163523608
sI715
F-13.863785818454094
sI716
F-15.981718605664165
sI717
F-11.584692576898885
sI718
F-4.2088025295300149
sI719
F-4.0572737252826121
sI720
F-9.249301584649956
sI721
F-5.7976303216874649
sI722
F-15.304210683133601
sI723
F-10.634635364098418
sI724
F-12.157158480586471
sI725
F-16.187184672225683
sI726
F-6.6385782548154308
sI727
F-6.0782780669055638
sI728
F-11.764792839912317
sI729
F-13.417807618972139
sI730
F-9.687100749261031
sI731
F-12.315131673455571
sI732
F-14.465695151335808
sI733
F-6.4091490219597169
sI734
F-8.1143602773639358
sI735
F-12.4108242712079
sI736
F-12.322599632738683
sI737
F-10.318464490398094
sI738
F-5.7227158548347568
sI739
F-9.646234114759455
sI740
F-8.6182761496225311
sI741
F-7.9239818778457689
sI742
F-6.8898647543735452
sI743
F-16.926146009733575
sI744
F-12.166774857925535
sI745
F-15.5756105964683
sI746
F-4.1831225748661547
sI747
F-17.351132181135398
sI748
F-16.718946732933851
sI749
F-14.153762285700436
sI750
F-10.238035392665566
sI751
F-16.461411884263512
sI752
F-12.157158480586471
sI753
F-10.753553111404978
sI754
F-6.6587515232401273
sI755
F-11.33993546184
sI756
F-13.027132214628143
sI757
F-11.881557726902273
sI758
F-5.9716447717273446
sI759
F-7.0918293804716486
sI760
F-3.2602055012914466
sI761
F-8.3631655840734851
sI762
F-14.901835438523483
sI763
F-3.4923272131856615
sI764
F-4.1797983784827588
sI765
F-13.557150822938405
sI766
F-7.7612598856758659
sI767
F-8.6010523050673449
sI768
F-2.0244983335855773
sI769
F-6.0948481328098598
sI770
F-14.177110390880898
sI771
F-12.520027482445858
sI772
F-13.772092299123443
sI773
F-6.297831397913761
sI774
F-12.470578032960201
sI775
F-11.976106216633497
sI776
F-16.235927258202121
sI777
F-5.0719461264741037
sI778
F-4.9065195205468708
sI779
F-7.1618582359993379
sI780
F-7.5707682013463939
sI781
F-11.757568476496509
sI782
F-5.024333612116731
sI783
F-4.7159855848758587
sI784
F-6.9253672159724191
sI785
F-8.6646639528270804
sI786
F-14.420801693242474
sI787
F-17.457433548096116
sI788
F-5.3051018953820019
sI789
F-13.373399336965644
sI790
F-4.1546628199806053
sI791
F-15.161264754669173
sI792
F-15.450406027470631
sI793
F-5.1901929634373056
sI794
F-6.6892387472092425
sI795
F-7.550126325515957
sI796
F-16.76361499561645
sI797
F-7.2694914245598428
sI798
F-6.613632914745124
sI799
F-9.8958279966276912
sI800
F-10.743610441198669
sI801
F-15.812425053552143
sI802
F-9.9529169241766535
sI803
F-4.8063449020036657
sI804
F-6.7507212919741111
sI805
F-4.0024960281257771
sI806
F-2.4163768217774457
sI807
F-13.29011582276229
sI808
F-15.532065777268697
sI809
F-15.873128305268104
sI810
F-5.3079618646412712
sI811
F-2.7726392653397998
sI812
F-13.735002190281838
sI813
F-10.802498183107748
sI814
F-11.791807225910761
sI815
F-3.8027973322960866
sI816
F-4.8285755258765111
sI817
F-6.9484315370113876
sI818
F-7.6792340630915792
sI819
F-4.6938016814528138
sI820
F-9.4890526223057172
sI821
F-10.26862347514599
sI822
F-14.03921320444535
sI823
F-5.0458537568247568
sI824
F-6.5895473031314022
sI825
F-11.765115373822507
sI826
F-11.076591826701321
sI827
F-2.4588479781488157
sI828
F-5.0311961978581818
sI829
F-7.2717959599164104
sI830
F-16.60952390043385
sI831
F-10.41205289450393
sI832
F-16.241720582165563
sI833
F-4.7798101249508935
sI834
F-14.514421136618589
sI835
F-6.1423870030534715
sI836
F-12.356251654150169
sI837
F-16.241720582165563
sI838
F-15.083066379133355
sI839
F-2.2434808132622521
sI840
F-10.023411637361983
sI841
F-13.008034139670553
sI842
F-12.140568649448017
sI843
F-10.35789506073441
sI844
F-8.3212386525826041
sI845
F-14.780300172509897
sI846
F-13.985438200354157
sI847
F-6.5642313612139649
sI848
F-3.5756617181115296
sI849
F-3.7577650907492606
sI850
F-11.220101806260409
sI851
F-8.3180232417070883
sI852
F-14.183096688471043
sI853
F-6.8365210312894105
sI854
F-14.449960051859863
sI855
F-15.369670949343121
sI856
F-6.4459531084367354
sI857
F-5.7338576971624295
sI858
F-9.6369044955881691
sI859
F-4.0779056215082763
sI860
F-11.744505633064453
sI861
F-10.666834748251631
sI862
F-14.255684646077787
sI863
F-14.98052656245331
sI864
F-12.910510156336297
sI865
F-8.0313633617137477
sI866
F-8.9451363185148196
sI867
F-7.0065186209435586
sI868
F-12.684740291298427
sI869
F-8.9206998603388961
sI870
F-17.276833048736627
sI871
F-7.0927572207247156
sI872
F-5.2819417136872628
sI873
F-13.956063641475808
sI874
F-14.985538965996776
sI875
F-9.5262383002785143
sI876
F-13.280032515916862
sI877
F-15.656412060911826
sI878
F-6.2614209403796952
sI879
F-10.765426793486309
sI880
F-15.943179947607268
sI881
F-13.276144121361712
sI882
F-13.656039035145808
sI883
F-6.9328715330435546
sI884
F-6.3524598183685876
sI885
F-7.5715691593197691
sI886
F-13.076581909101499
sI887
F-2.4780774512478407
sI888
F-3.9961934912867996
sI889
F-8.8374631593504951
sI890
F-13.465990824744923
sI891
F-13.683967290728484
sI892
F-8.0222655559066709
sI893
F-4.8113798042900191
sI894
F-13.741963970663829
sI895
F-2.8399815887919502
sI896
F-2.5322136689676604
sI897
F-11.458275041753183
sI898
F-13.441158177933989
sI899
F-12.24803433074878
sI900
F-3.5982126868844704
sI901
F-15.674165678905799
sI902
F-13.775200753951093
sI903
F-16.235757947958717
sI904
F-9.5695461189033537
sI905
F-13.589563515491008
sI906
F-4.5275407689620435
sI907
F-16.710826804518948
sI908
F-9.8050043470000041
sI909
F-16.76361499561645
sI910
F-14.932586281640861
sI911
F-4.3869062006728168
sI912
F-13.129181980262178
sI913
F-4.9612384841333528
sI914
F-9.9909867343168113
sI915
F-8.7668765950887906
sI916
F-7.350789481685279
sI917
F-1.5102741711517238
sI918
F-14.851294574139558
sI919
F-7.9089887765114977
sI920
F-4.8736240778440987
sI921
F-3.8209050482265838
sI922
F-11.534916909853628
sI923
F-14.767877700768421
sI924
F-12.310053590512776
sI925
F-7.0634573966335346
sI926
F-12.883392333979019
sI927
F-14.628934516283016
sI928
F-14.606835434476601
sI929
F-12.18191356797273
sI930
F-15.347905927341364
sI931
F-14.347086026717463
sI932
F-9.5201001050405694
s.