(dp1
I0
F-0.32886535795130101
sI1
F8.4200228608133187
sI2
F-3.0928658622469327
sI3
F0.49943673166066893
sI4
F7.525449120407953
sI5
F32.3749340916793
sI6
F3.5060399196816507
sI7
F4.6425230460336744
sI8
F2.8654872434135652
sI9
F20.391049358851927
sI10
F9.12377848522787
sI11
F16.113516408992076
sI12
F14.644678206655984
sI13
F9.4790758278475007
sI14
F4.9362333903604174
sI15
F12.344332200594909
sI16
F17.087765873675718
sI17
F4.2658665086504124
sI18
F10.527694714024204
sI19
F-2.3408477600070512
sI20
F4.2342706864395536
sI21
F5.0631498646695379
sI22
F1.3365071419037085
sI23
F10.812602755768335
sI24
F4.9885794428015604
sI25
F-2.3778852406579505
sI26
F16.737318889245341
sI27
F15.634826167441931
sI28
F16.323525721761055
sI29
F1.1136164248186111
sI30
F-1.2962348015231442
sI31
F-3.4759256644186354
sI32
F16.350683488188896
sI33
F16.466865560068449
sI34
F1.1222931641486618
sI35
F1.0807843357656528
sI36
F7.2637394048615196
sI37
F5.432878936323152
sI38
F1.9132162787773357
sI39
F-3.1472860924459543
sI40
F-2.1671858056103321
sI41
F-0.7393653369139459
sI42
F19.241285754593267
sI43
F1.6935462622500819
sI44
F2.2214455184962962
sI45
F13.404232312685236
sI46
F4.192331355684022
sI47
F13.073994344480028
sI48
F12.601494875458894
sI49
F2.4426746368779151
sI50
F5.1457553154741138
sI51
F6.2845626853813492
sI52
F-3.6827184537941968
sI53
F3.5225278900652381
sI54
F-0.053543240344408716
sI55
F0.43187557908412305
sI56
F9.7781573949434257
sI57
F10.31651414770146
sI58
F-99.399999999998627
sI59
F-2.7374606747675463
sI60
F4.5196734757838337
sI61
F-2.3996071640943661
sI62
F3.5060399181841908
sI63
F8.6448427564034915
sI64
F-6.6377975928972326
sI65
F2.1939936895065344
sI66
F1.1638651897375898
sI67
F1.8283066345946268
sI68
F7.9813551046851456
sI69
F15.974339973350252
sI70
F8.1637154590940746
sI71
F3.7254170315787283
sI72
F6.5282432822553531
sI73
F7.5125769389283779
sI74
F8.2540364279495488
sI75
F3.8929733901902233
sI76
F-0.69175900168927829
sI77
F10.328019767502688
sI78
F-1.7621448784086724
sI79
F1.6887313508962176
sI80
F16.989317517138165
sI81
F19.703737957666437
sI82
F-0.18008879857910531
sI83
F2.1962275029216132
sI84
F3.5145112291140546
sI85
F-2.6699620904484185
sI86
F0.16400834024111854
sI87
F13.340776882962061
sI88
F4.079790389531186
sI89
F4.8250430290915549
sI90
F15.136398427601193
sI91
F9.6256540756478941
sI92
F7.4352468017236104
sI93
F0.49189427698776544
sI94
F4.188270107105966
sI95
F3.4466789966789455
sI96
F6.5148127870235566
sI97
F-4.5274620191903283
sI98
F20.887167664488967
sI99
F14.466046274671299
sI100
F5.8447949835471888
sI101
F17.882332056433992
sI102
F-0.14977813509622784
sI103
F2.9353451016898644
sI104
F0.079146841167992754
sI105
F-2.0542591234027912
sI106
F4.3008870591259409
sI107
F12.603302400070998
sI108
F3.0680460208773761
sI109
F2.5131363754047902
sI110
F9.7170627790488755
sI111
F5.3133934212934433
sI112
F0.94286512448643445
sI113
F10.039035647043132
sI114
F2.6988141988893384
sI115
F0.47715093700640765
sI116
F8.0419431391680156
sI117
F18.862389142132081
sI118
F7.8413479192098174
sI119
F14.075082706603808
sI120
F12.106255603379573
sI121
F0.82533887731135547
sI122
F8.8104186669435123
sI123
F3.770454117251882
sI124
F9.8727885000145879
sI125
F20.248533617102922
sI126
F2.1739318274970421
sI127
F4.7835077083701814
sI128
F3.7609204016673337
sI129
F1.097520565229976
sI130
F3.1951436865227816
sI131
F-0.20479833359191724
sI132
F11.955870684135608
sI133
F12.738325485204761
sI134
F8.34402925785486
sI135
F3.7913281234481357
sI136
F3.9118738086795024
sI137
F-0.8900838276144083
sI138
F4.1570684768760353
sI139
F11.638529901378487
sI140
F10.673374783887049
sI141
F7.8020117079889753
sI142
F4.2671999661147657
sI143
F3.2530941229147095
sI144
F1.0138185880216921
sI145
F3.0650410369464312
sI146
F6.5855337694738187
sI147
F0.43167729678926792
sI148
F12.174802861157907
sI149
F1.4326877187231692
sI150
F0.89622970167629701
sI151
F7.415783792096482
sI152
F9.2061244422802186
sI153
F5.1526691926096486
sI154
F10.421042888688644
sI155
F2.6846783600799879
sI156
F1.3053364192165233
sI157
F0.65134946761156098
sI158
F4.8889475195825209
sI159
F7.5556217776071923
sI160
F2.5736355497829067
sI161
F1.4237861071323792
sI162
F3.125463698292906
sI163
F15.507181205057464
sI164
F0.16545807160630432
sI165
F2.2216009127781602
sI166
F6.1445951792810662
sI167
F1.2544840755693598
sI168
F5.9155525425858304
sI169
F14.931112077181604
sI170
F5.0219237620842474
sI171
F-2.4653368234642756
sI172
F-5.7621599963066599
sI173
F3.9791534982547807
sI174
F5.1955488207343219
sI175
F6.3605580143174363
sI176
F-2.5070867026897075
sI177
F0.83904354063085729
sI178
F13.102657150083925
sI179
F-0.39360398765447896
sI180
F9.5084556583662341
sI181
F1.245124240698825
sI182
F2.701392182590471
sI183
F17.863718712385044
sI184
F17.656740057469005
sI185
F4.5196734700530312
sI186
F3.5372473966210283
sI187
F-3.374586119207803
sI188
F7.5001716365018032
sI189
F16.728283348217012
sI190
F16.728283348217005
sI191
F-1.1244524379972278
sI192
F6.1611783640637068
sI193
F7.6494167900693437
sI194
F18.807725299317152
sI195
F4.5907586601923089
sI196
F17.681844809542412
sI197
F9.1380957466034545
sI198
F2.7513406493737511
sI199
F14.827993229798368
sI200
F-0.59096154496087827
sI201
F1.7396581573356191
sI202
F20.625749861199058
sI203
F-5.4214022729596101
sI204
F4.5392061176043139
sI205
F2.8923970613796266
sI206
F0.96320143704984373
sI207
F0.65152912321964485
sI208
F17.587166298566096
sI209
F15.802427059344447
sI210
F-2.8170646216384077
sI211
F-1.6813406297763662
sI212
F30.550466073017905
sI213
F14.931112077181616
sI214
F7.3914935575655605
sI215
F1.2503872537765708
sI216
F1.961388902791211
sI217
F12.129855783193799
sI218
F35.548895553882758
sI219
F6.2016146806412333
sI220
F-99.399999999998627
sI221
F21.088202173362792
sI222
F2.693716846810811
sI223
F-3.2160179612714987
sI224
F11.924460423985305
sI225
F5.1558971223552144
sI226
F9.1144029696927067
sI227
F1.8890849055404142
sI228
F-0.39565397051848339
sI229
F-0.6734034664918277
sI230
F1.8639439769582209
sI231
F2.6205424862013222
sI232
F8.6286235459802185
sI233
F10.106661695821685
sI234
F13.456737249790715
sI235
F10.691973336700995
sI236
F13.521101099176402
sI237
F2.8873740847850566
sI238
F0.41041052351815371
sI239
F6.7072385755878292
sI240
F6.7008391847700457
sI241
F10.023306341425048
sI242
F-3.0028525489553175
sI243
F13.948049787972375
sI244
F8.876340141399524
sI245
F12.992077640481536
sI246
F35.924910890527848
sI247
F30.550481724620635
sI248
F2.7766117173863059
sI249
F3.8229795283774308
sI250
F9.6421451123166122
sI251
F4.7334359315219521
sI252
F5.9505311352242929
sI253
F3.8416011600611544
sI254
F2.7662059801871477
sI255
F11.795123702689347
sI256
F3.504244964275248
sI257
F18.138294478985955
sI258
F5.9638692959352442
sI259
F6.9771496469415597
sI260
F7.0285092298710676
sI261
F3.0426429780221991
sI262
F4.2832422965256329
sI263
F0.17128721171663475
sI264
F13.266699037631046
sI265
F7.0211149500630858
sI266
F0.45892877082328931
sI267
F0.47715093534109698
sI268
F6.4275049605102934
sI269
F4.754679938616083
sI270
F4.8640399429839487
sI271
F20.80620748381083
sI272
F-5.1025271949328408
sI273
F10.303378142877055
sI274
F10.535645670134826
sI275
F9.2184104193290182
sI276
F4.5694446401738871
sI277
F-1.5846616856242739
sI278
F1.4522707940426649
sI279
F0.58903931992240421
sI280
F5.5000034567576739
sI281
F-4.9771774961421551
sI282
F-0.30126648218042318
sI283
F2.6854417328388172
sI284
F4.3785671691058985
sI285
F4.3046599608368199
sI286
F-5.4214022739990178
sI287
F-2.3071932374365445
sI288
F10.737119767621861
sI289
F12.069089273484117
sI290
F-1.1220663483679736
sI291
F-0.77456778684141758
sI292
F-5.7103725915111472
sI293
F14.936031432635682
sI294
F-2.1792003620202633
sI295
F1.740817493034668
sI296
F13.142352257369513
sI297
F9.5359547220479079
sI298
F5.8262932107462593
sI299
F3.7615934980286099
sI300
F35.596572356851247
sI301
F7.5412904650427199
sI302
F13.505936964684709
sI303
F13.732553803498991
sI304
F9.4520284130139007
sI305
F32.979174623796105
sI306
F-2.7346371487810046
sI307
F-1.3964841242244266
sI308
F8.5092448791154442
sI309
F-3.0974289153797101
sI310
F5.9871897126012534
sI311
F9.1707231154595199
sI312
F5.717623035467053
sI313
F6.7253852476005491
sI314
F2.1559982985345902
sI315
F1.9580601551616212
sI316
F9.1187786819985845
sI317
F4.5662014674809557
sI318
F3.6634353530005237
sI319
F4.9341554764857483
sI320
F8.6129069663565812
sI321
F1.9436507335196627
sI322
F8.3333484907222228
sI323
F9.1469796490398352
sI324
F-2.560854465711178
sI325
F10.474242445290979
sI326
F13.790778861966714
sI327
F13.78069988326703
sI328
F2.8392005855872977
sI329
F5.4856753998523189
sI330
F1.5406650367304922
sI331
F9.64771544331977
sI332
F9.2470489942966267
sI333
F1.4824188703896291
sI334
F1.9020141774855379
sI335
F22.452611882702101
sI336
F8.492232213016413
sI337
F5.854943267635039
sI338
F0.10995902115610234
sI339
F8.4298768115287057
sI340
F20.159517725106141
sI341
F3.5029917427807504
sI342
F13.228243639007459
sI343
F4.1920665661613263
sI344
F6.008542801846227
sI345
F10.233676940047259
sI346
F3.126638681355336
sI347
F-3.7934302546569327
sI348
F1.9271057680653705
sI349
F2.1552394042645906
sI350
F9.7890338457655623
sI351
F0.0098839769878493466
sI352
F30.550493912515094
sI353
F16.054689209270421
sI354
F2.0150830959205606
sI355
F1.631891704802636
sI356
F16.131254498775302
sI357
F6.916875216362631
sI358
F1.9656494989483244
sI359
F12.450581113079277
sI360
F3.1070734941537044
sI361
F9.5749722948344687
sI362
F14.706687767136181
sI363
F9.4762401957283338
sI364
F23.592184631562905
sI365
F17.383010649963971
sI366
F14.67963827668769
sI367
F-1.6813919127523012
sI368
F6.9422821217542205
sI369
F1.7206172459200977
sI370
F18.850829558442804
sI371
F11.034442225897633
sI372
F5.756579852993867
sI373
F-5.3382937212688208
sI374
F-0.4671457736435507
sI375
F15.73117812143111
sI376
F13.151920795208657
sI377
F5.2319193132840089
sI378
F10.413220842293212
sI379
F17.000506490087403
sI380
F15.746913284665625
sI381
F7.9015413762281348
sI382
F3.6741301900643117
sI383
F24.564500526544979
sI384
F1.8595956742528108
sI385
F-0.78451975755379411
sI386
F19.44894223761667
sI387
F9.9014958350524989
sI388
F9.968217228709312
sI389
F8.4238005939887053
sI390
F5.219751590727487
sI391
F10.143172080154542
sI392
F-1.8066903329132371
sI393
F8.500144618077023
sI394
F7.4809830238339527
sI395
F5.812113897784938
sI396
F20.248533613044543
sI397
F8.4529022708414026
sI398
F1.5718174592013441
sI399
F10.160169293073551
sI400
F5.4696073822440967
sI401
F4.1368933215842558
sI402
F24.78463794284502
sI403
F3.7912501299163006
sI404
F12.459927955275283
sI405
F-5.7103725927129334
sI406
F10.890236768221754
sI407
F15.420218580924699
sI408
F2.6961611640471741
sI409
F31.042240353363873
sI410
F3.1946702323377183
sI411
F0.025182408430816983
sI412
F-3.216017969711146
sI413
F9.3640781006855107
sI414
F7.0548227549544968
sI415
F3.9873598182823544
sI416
F-3.6644485509723008
sI417
F-4.1501112865243801
sI418
F7.7448426557883323
sI419
F8.0986514641585821
sI420
F10.957927156425626
sI421
F-4.6561998336014412
sI422
F8.229427346285755
sI423
F10.703269904497178
sI424
F6.4602555908047457
sI425
F5.1303793021213453
sI426
F2.2214455083435078
sI427
F11.285202379978298
sI428
F0.28236323090397863
sI429
F13.068693916111041
sI430
F10.273062499843977
sI431
F35.548907068625027
sI432
F8.3178181674212386
sI433
F1.6822596683522546
sI434
F12.695252501982822
sI435
F6.7146849294191604
sI436
F5.1441152976766302
sI437
F2.1368393452286014
sI438
F6.3030812579045081
sI439
F12.53756554525048
sI440
F0.93191383159867147
sI441
F0.021985216236228844
sI442
F2.8975211796525295
sI443
F3.5389792206861119
sI444
F13.025729847977821
sI445
F6.2040646879175867
sI446
F11.416227573690847
sI447
F-1.9593052165628781
sI448
F14.828915582143077
sI449
F3.8699933923010246
sI450
F6.51457851555256
sI451
F36.104929147979057
sI452
F1.6888855386334007
sI453
F11.476520045361148
sI454
F2.5667119824130546
sI455
F12.789937669688323
sI456
F6.9840336907692091
sI457
F-3.1472860998633463
sI458
F-0.086488199162257418
sI459
F-3.5367536173371881
sI460
F-3.5485116599862452
sI461
F-5.9127347423287455
sI462
F-2.200822934857988
sI463
F1.9810343354644395
sI464
F5.9089506553286375
sI465
F8.4577618641910846
sI466
F16.137460136703918
sI467
F8.2447696050089672
sI468
F-0.38589528930328998
sI469
F0.6193726352318788
sI470
F7.7930109877089393
sI471
F7.4627348356361924
sI472
F10.350296420337457
sI473
F6.0930353935451995
sI474
F0.66927509122611717
sI475
F4.94262717799353
sI476
F7.6660370686139938
sI477
F-0.2024856567477612
sI478
F-0.37299825966437156
sI479
F2.2967231550704903
sI480
F8.5264737741097267
sI481
F-0.69175900969030402
sI482
F-4.5865282505413667
sI483
F10.503232770954385
sI484
F6.9840336907691913
sI485
F4.5801703947610539
sI486
F7.5728384566832432
sI487
F2.2738976269859776
sI488
F3.1232811633561335
sI489
F4.6665138031513749
sI490
F12.102784503211309
sI491
F1.0841412127800343
sI492
F0.0065233655189457229
sI493
F0.57413518512826789
sI494
F-1.8477818014813516
sI495
F-1.9302247965529529
sI496
F14.085009695304979
sI497
F5.9710327878030887
sI498
F11.856940362757538
sI499
F-0.44758581282399929
sI500
F15.683095900159882
sI501
F3.6634353461274349
sI502
F-1.8380658501383471
sI503
F-5.0822940962779137
sI504
F7.3566757953994184
sI505
F0.49234594714167279
sI506
F7.0912815477816018
sI507
F7.8379473101706667
sI508
F0.029410520144185104
sI509
F12.757897946997703
sI510
F-4.1769642769157276
sI511
F7.7416943846877029
sI512
F2.2806171473334835
sI513
F6.0991776387894578
sI514
F3.7766165522325137
sI515
F2.9585007663434491
sI516
F-4.6940785656718571
sI517
F2.6260253866768406
sI518
F9.1582142841713114
sI519
F5.2594252331860005
sI520
F9.7508983986837201
sI521
F15.452692123542814
sI522
F18.894420756322052
sI523
F4.3040857946418578
sI524
F-3.6817321557672145
sI525
F5.4884322887983066
sI526
F3.5347215817503925
sI527
F-99.399999999998627
sI528
F-3.1489737152761368
sI529
F7.07380211652284
sI530
F-0.39999519169347497
sI531
F31.042240353363869
sI532
F6.8161455200090764
sI533
F7.7805623955619794
sI534
F9.9597040968180526
sI535
F0.98559947921543767
sI536
F36.181295531817973
sI537
F-3.6644485518229595
sI538
F2.6162047008095661
sI539
F0.80883513735078516
sI540
F2.1158945764753581
sI541
F12.418866059777189
sI542
F0.57795151213851392
sI543
F0.38275962587722234
sI544
F13.559267816096916
sI545
F4.1464117628870261
sI546
F11.635275035805122
sI547
F-1.1039629688667547
sI548
F20.454274526354613
sI549
F11.709740262647763
sI550
F-0.83363569905545454
sI551
F-0.022676544511108454
sI552
F10.777148169507518
sI553
F35.811038911994295
sI554
F0.37460020499068225
sI555
F10.309732048992725
sI556
F4.3935027967086704
sI557
F8.8492977602011056
sI558
F1.5946886466603978
sI559
F9.5916034822457092
sI560
F4.9648952236739463
sI561
F4.9876693373972651
sI562
F4.587944886812946
sI563
F12.263901918454636
sI564
F-1.6828201878456959
sI565
F15.564666828005661
sI566
F3.3637750681209218
sI567
F4.033218568851539
sI568
F-1.1532810034716503
sI569
F12.758442240486223
sI570
F16.466865555248649
sI571
F4.2939703718044466
sI572
F10.64412796201983
sI573
F-0.69175901009153207
sI574
F13.125426256124911
sI575
F-2.5694630815026365
sI576
F4.7561600848590215
sI577
F4.5241821862935296
sI578
F1.6692000857984466
sI579
F15.803718735063185
sI580
F12.273896973643851
sI581
F-1.8894899833506487
sI582
F25.362785424188139
sI583
F2.7432170880853288
sI584
F2.0403056721612831
sI585
F2.6715144189838984
sI586
F2.6260439318506719
sI587
F5.9814826549022637
sI588
F6.4120431778761748
sI589
F4.2720369612050177
sI590
F1.3494643542289739
sI591
F5.6950009362865401
sI592
F14.273084888182717
sI593
F2.8637384999481101
sI594
F5.8459941976752905
sI595
F14.874980633017779
sI596
F17.991397572465957
sI597
F-3.4133010317436892
sI598
F8.0961893437796668
sI599
F-8.0810579450044902
sI600
F2.8770622971743425
sI601
F3.420546894498365
sI602
F5.5588152575001057
sI603
F2.1357821342974463
sI604
F4.2486095681755671
sI605
F7.6795677904608395
sI606
F7.9544077465657281
sI607
F13.319041827997657
sI608
F9.0956431825001385
sI609
F2.8011418522332199
sI610
F7.6316545066511834
sI611
F8.4098244736799828
sI612
F7.5668305457213796
sI613
F-6.7876189550908812
sI614
F8.9151111470037332
sI615
F-0.72088685223429516
sI616
F11.439139610323778
sI617
F5.0468776882692499
sI618
F-1.3453303544971973
sI619
F-1.2105898145105196
sI620
F11.70219031454709
sI621
F2.2770586361866769
sI622
F18.124752887857969
sI623
F12.711167654276592
sI624
F2.7445247132383255
sI625
F2.4287065637780358
sI626
F3.5255826895097568
sI627
F0.42306495260926397
sI628
F0.15351664756246022
sI629
F12.4691012782644
sI630
F11.411075464152038
sI631
F10.220257689072335
sI632
F-5.9091611942532136
sI633
F0.19084255843975201
sI634
F4.5021027153400315
sI635
F11.112214861962334
sI636
F0.71832250097573258
sI637
F1.8254058541287639
sI638
F0.84778363446717753
sI639
F7.9234287408751367
sI640
F8.0771765777586655
sI641
F8.071378947698566
sI642
F1.8314916796809078
sI643
F-0.45952690281358433
sI644
F4.1745086188024727
sI645
F2.4285046028977542
sI646
F8.5452785043287243
sI647
F-3.4239006842636854
sI648
F7.5508571044375747
sI649
F9.0355231756031298
sI650
F3.4619882141411322
sI651
F12.941780236780597
sI652
F-0.19957835145322567
sI653
F4.5392061122518292
sI654
F6.414279972682662
sI655
F-1.60745177778348
sI656
F15.451167186768467
sI657
F5.1241434498327116
sI658
F2.4417234333657065
sI659
F10.225726921040536
sI660
F8.0672029882590888
sI661
F9.8148148394650168
sI662
F4.4459160874509633
sI663
F11.226375212939717
sI664
F14.579026695257767
sI665
F-3.1714776584911566
sI666
F18.020632309516415
sI667
F6.6463108625070042
sI668
F1.0296312778195778
sI669
F-3.983176446351377
sI670
F5.6771559407965135
sI671
F13.770079429641122
sI672
F5.0164545108135625
sI673
F14.990562505962552
sI674
F6.6186856258497473
sI675
F6.218585810545564
sI676
F4.7270144752602494
sI677
F1.5602163833998846
sI678
F12.655072900781073
sI679
F-1.5775643110176467
sI680
F8.5822126555939136
sI681
F12.226086154761544
sI682
F9.9943812462353794
sI683
F3.0137472420335465
sI684
F11.72378730476618
sI685
F7.9015413633571665
sI686
F1.15091373995885
sI687
F-5.4750372375813852
sI688
F7.8311500853509468
sI689
F8.3768017004595059
sI690
F10.763135026513053
sI691
F4.5129340185342333
sI692
F12.907093043563865
sI693
F8.1433025630705771
sI694
F3.9976549610677434
sI695
F-0.22356732546062835
sI696
F0.37862220447218287
sI697
F12.894487824640786
sI698
F18.179800314950711
sI699
F3.9326814318058116
sI700
F3.0447019042459185
sI701
F-1.3519330492317292
sI702
F3.2238169227809337
sI703
F15.34552280614415
sI704
F1.4324982710855947
sI705
F-99.399999999998627
sI706
F-3.0132878092549316
sI707
F0.16658505974407198
sI708
F-0.20676367724361733
sI709
F4.6475211264923608
sI710
F6.6268283846466458
sI711
F3.964422184005977
sI712
F15.511887880436539
sI713
F5.2233664230395744
sI714
F31.042243465422327
sI715
F3.5988032971095967
sI716
F2.6559785026806235
sI717
F8.6560571969391109
sI718
F9.7320729334599516
sI719
F-0.26140623630690651
sI720
F8.0684742803936604
sI721
F-1.656712161576519
sI722
F0.008772341087691593
sI723
F2.1268338095680837
sI724
F2.318042048626447
sI725
F11.52784372867252
sI726
F27.248544930011001
sI727
F8.7033310579229326
sI728
F-2.1581908053467846
sI729
F8.3948008673508845
sI730
F-4.0704046654678772
sI731
F0.96375463194682087
sI732
F-5.0822940963944454
sI733
F12.129855750459505
sI734
F1.0502847469515864
sI735
F11.943758699658385
sI736
F-0.85155469841382692
sI737
F2.333650332443534
sI738
F-2.9337159707667233
sI739
F1.111413563112138
sI740
F-3.2698215587035526
sI741
F15.542684573585371
sI742
F4.0175870372891955
sI743
F10.088432039474862
sI744
F2.3645521366129278
sI745
F-3.5485116657375597
sI746
F15.97433996225957
sI747
F3.7062473776801577
sI748
F5.7514757112050292
sI749
F6.6109105729053343
sI750
F13.340776873969926
sI751
F-2.4576680343195623
sI752
F0.91456314314385567
sI753
F4.7966493432933115
sI754
F-6.1935728259884364
sI755
F0.012848281056985766
sI756
F9.1542078108735367
sI757
F-1.8450726346715101
sI758
F1.2685618516171004
sI759
F6.5971564679848891
sI760
F0.043304432098755785
sI761
F5.6684286551600538
sI762
F1.9748782711310566
sI763
F1.4639923377026856
sI764
F5.7375979984747385
sI765
F18.807725285624784
sI766
F13.340776870523351
sI767
F2.3527180404640751
sI768
F1.488415577266835
sI769
F2.4721968860716359
sI770
F-1.6930348347110793
sI771
F-0.52691521676005537
sI772
F12.567882314414598
sI773
F1.6921481924884363
sI774
F11.283189771766446
sI775
F15.226373903360937
sI776
F-0.52882672921896379
sI777
F7.2917182115375825
sI778
F1.2517431255734559
sI779
F1.9535268787061444
sI780
F6.5003102262048236
sI781
F9.2176928915015726
sI782
F3.387329397420813
sI783
F0.847783629336471
sI784
F9.9563829173037686
sI785
F8.8048267789192458
sI786
F4.0091049371179199
sI787
F13.717993109392348
sI788
F9.6111962036827308
sI789
F3.4078544137227702
sI790
F11.759525013250078
sI791
F8.9609665382022676
sI792
F12.974977356546438
sI793
F7.7561403506386757
sI794
F12.048486666217244
sI795
F5.5710969517264113
sI796
F3.3806476628920246
sI797
F5.6589459972553797
sI798
F0.77938966640880836
sI799
F36.072471634338825
sI800
F7.8949660087840376
sI801
F-2.6146676515472604
sI802
F3.3610096818137869
sI803
F1.3182436759859717
sI804
F7.6863761298924826
sI805
F13.394508725071509
sI806
F-1.7064168678680631
sI807
F14.850200606444057
sI808
F5.0219237405954473
sI809
F7.8145108402002759
sI810
F-0.43012729361368041
sI811
F11.482373133595422
sI812
F-1.9557485546751145
sI813
F3.2299338784387723
sI814
F14.29549245586615
sI815
F9.0579259725135266
sI816
F5.428876841892107
sI817
F-3.5367536235191972
sI818
F5.1526691595604825
sI819
F21.212303036963693
sI820
F3.2711105277023567
sI821
F4.5728325769255225
sI822
F5.3299058617317243
sI823
F2.3114092543851821
sI824
F-99.399999999998627
sI825
F-1.845072634944513
sI826
F-4.121898404635032
sI827
F7.7069456109184085
sI828
F1.7794704029122002
sI829
F3.1955941508441978
sI830
F5.8684187733541826
sI831
F-3.3745861315882149
sI832
F15.80692548892749
sI833
F15.27601750987519
sI834
F9.946570427130542
sI835
F2.1035787335422906
sI836
F-3.6143912580868101
sI837
F16.614878964174412
sI838
F-2.4315755442080964
sI839
F4.6295988698496755
sI840
F11.278249705394005
sI841
F11.150893326168516
sI842
F4.846141201576402
sI843
F5.4971314663432933
sI844
F-3.1964580239607758
sI845
F-0.64974357802443095
sI846
F-1.4012391011487617
sI847
F6.711336493920518
sI848
F9.7443645216723844
sI849
F14.142531016507874
sI850
F19.385486981890523
sI851
F9.8808052571329181
sI852
F-3.9689315288401303
sI853
F-3.1714776586676385
sI854
F-0.81829442186059653
sI855
F9.3963018845142052
sI856
F11.567054932016047
sI857
F6.9931180377845994
sI858
F13.027249207724307
sI859
F-3.0272498202359888
sI860
F3.795494276705397
sI861
F2.1589011033215462
sI862
F21.985240055375836
sI863
F13.635261432074302
sI864
F6.8304337113271929
sI865
F0.34575382308601554
sI866
F1.1656955233550275
sI867
F6.5825369161434981
sI868
F0.96320142406372322
sI869
F13.40355446192391
sI870
F1.7108298459567077
sI871
F-3.0974289266009443
sI872
F6.0444362929144555
sI873
F5.0481923685052896
sI874
F1.605659966628135
sI875
F9.0333947197384425
sI876
F-0.87093055232453387
sI877
F4.1162515591218245
sI878
F13.631901032989109
sI879
F7.0912815380562719
sI880
F0.0087723349324491107
sI881
F8.4042325912665614
sI882
F10.762181378761554
sI883
F6.0502074674575841
sI884
F-3.3796208308844564
sI885
F3.9332308983608208
sI886
F6.6767739759997564
sI887
F-0.20149989880508357
sI888
F0.18801772472816047
sI889
F2.8865121707140746
sI890
F6.6124423455657437
sI891
F3.767061239800837
sI892
F1.9439038164415101
sI893
F1.8580256172517435
sI894
F6.9721213435742495
sI895
F7.0198658520438677
sI896
F-0.73255009353377254
sI897
F0.41263557331107581
sI898
F10.71737671934369
sI899
F0.2417854711549916
sI900
F4.2611558458469734
sI901
F16.963404765927265
sI902
F-0.13553772623154678
sI903
F7.4117531091614817
sI904
F2.902307209450834
sI905
F0.060040675168109736
sI906
F1.7398841396837339
sI907
F-1.8450726369452113
sI908
F2.9221274726114639
sI909
F1.751887453842786
sI910
F5.6467017793762571
sI911
F11.61403871606357
sI912
F-1.3081684014859372
sI913
F-0.79718455097141749
sI914
F9.3307099551998167
sI915
F29.18519595677326
sI916
F3.0531303722811778
sI917
F30.550633012324255
sI918
F8.8416453754942914
sI919
F-6.6377976128812213
sI920
F3.1511207840381905
sI921
F2.7541279153518268
sI922
F1.2828711391266214
sI923
F5.7772054518406994
sI924
F6.4406560714728274
sI925
F2.7768594486749141
sI926
F9.9581660222578474
sI927
F0.61397567726566149
sI928
F3.0426429344574175
sI929
F7.8284944421692808
sI930
F15.141367146341725
sI931
F2.6201770928627939
sI932
F13.314122448479649
sI933
F-2.970483358393682
sI934
F3.6171720734610053
sI935
F13.319956637927101
sI936
F7.391493535707256
sI937
F3.6396579224332344
sI938
F32.373435334887517
sI939
F11.612803855746179
sI940
F16.724119939162136
sI941
F3.3255067394345144
sI942
F12.956651510845692
sI943
F9.0651462192832248
sI944
F36.072476684014731
sI945
F10.409521870979875
sI946
F4.8492004352954758
sI947
F3.8028410881607746
sI948
F35.548925950361593
sI949
F8.249041201324669
sI950
F15.012774084837169
sI951
F17.254548806966721
sI952
F-2.179200376851278
sI953
F-0.19957835711487926
sI954
F5.4880186902014723
sI955
F2.1222158231547619
sI956
F11.832546624919058
sI957
F3.3105584258783853
sI958
F9.613509744563018
sI959
F4.483578627808722
sI960
F-2.5213272039731058
sI961
F14.673679088695103
sI962
F13.975821447819605
sI963
F12.26660219328461
sI964
F3.177875426861938
sI965
F11.533078566174384
sI966
F-0.62867731289372275
sI967
F-3.43980452262752
sI968
F5.1457552962610649
sI969
F7.6649229680139115
sI970
F15.865237007287098
sI971
F20.296344427376535
sI972
F7.0529579726318019
sI973
F31.042251422785395
sI974
F13.073621848310125
sI975
F0.39143783354233763
sI976
F0.54227093226709877
sI977
F13.740422581185237
sI978
F5.4806951196730083
sI979
F0.38247233768643657
sI980
F6.700197462989772
sI981
F6.118423802191022
sI982
F3.8083726303258247
sI983
F13.3885876813899
sI984
F-1.1912129237991718
sI985
F5.6189266237185631
sI986
F5.4898305453713441
sI987
F11.348841195374385
sI988
F6.6693203769270326
sI989
F-3.6641032414681551
sI990
F8.7150847056383203
sI991
F16.053244263387494
sI992
F4.4909776304050686
sI993
F6.1691853063992852
sI994
F4.890525504678001
sI995
F-2.7178853619462497
sI996
F4.8811258329935958
sI997
F-1.8764705490278917
sI998
F22.190259521575612
sI999
F8.2056696305153949
sI1000
F10.066422949002147
sI1001
F3.5324442201362727
sI1002
F2.7587561650089101
sI1003
F36.157478232657574
sI1004
F4.4786056002596082
sI1005
F22.075349864270091
sI1006
F0.36525914828141259
sI1007
F0.31465944029079296
sI1008
F12.748550845680041
sI1009
F6.8340305797548417
sI1010
F16.05468920282939
sI1011
F4.6364496446724806
sI1012
F-2.3171949162299206
sI1013
F5.3324669454897995
sI1014
F1.7854281429729255
sI1015
F7.691959785367227
sI1016
F6.8709137073698319
sI1017
F-3.6666598043082783
sI1018
F3.2181171237649764
sI1019
F2.0006922759241048
sI1020
F-0.59702269889749326
sI1021
F7.3232135593102878
sI1022
F-0.70920391919877601
sI1023
F-3.8658987803859479
sI1024
F-2.0542591415071314
sI1025
F1.0406655598030774
sI1026
F0.2316597344709298
sI1027
F10.251918510069444
sI1028
F15.397165322087838
sI1029
F4.9845681979316154
sI1030
F-0.88470669223390452
sI1031
F-1.2200593389763019
sI1032
F5.8672165407195438
sI1033
F-3.439804522810745
sI1034
F8.0530042829755182
sI1035
F-2.2842398982280834
sI1036
F1.8982544622926054
sI1037
F6.3690644760022073
sI1038
F8.6537281840085711
sI1039
F-0.8454516359469173
sI1040
F5.8146768576115528
sI1041
F4.0474519805135545
sI1042
F5.2235532976881034
sI1043
F13.329913326231395
sI1044
F5.4426251000185051
sI1045
F11.281588766859199
sI1046
F-0.9582128120341229
sI1047
F4.2500085058642121
sI1048
F-4.7081774225382107
sI1049
F4.2547648779100662
sI1050
F2.1164262148287314
sI1051
F1.557295262430646
sI1052
F5.6226936643542187
sI1053
F10.126234359855879
sI1054
F7.8221007188851566
sI1055
F9.3173378591780747
sI1056
F6.5737947209919678
sI1057
F1.685837537785982
sI1058
F10.999173123541674
sI1059
F1.6858375368639065
sI1060
F6.8121094479313333
sI1061
F2.4434863613665114
sI1062
F12.135090664838797
sI1063
F8.1265520605181081
sI1064
F3.8111681203247025
sI1065
F27.248632139202194
sI1066
F4.518839562943298
sI1067
F-1.5285561864453718
sI1068
F13.693480331893465
sI1069
F-5.475037246453315
sI1070
F11.352620940177138
sI1071
F6.9035652022569627
sI1072
F12.435661008710701
sI1073
F1.3512897908947952
sI1074
F4.3933574191098117
sI1075
F9.5596577519233392
sI1076
F-1.0498102740722515
sI1077
F20.354274858213451
sI1078
F6.6000275101915165
sI1079
F2.751621159382255
sI1080
F5.7135694253167104
sI1081
F2.0324758663711475
sI1082
F-0.81661085810235345
sI1083
F-0.76120373476021952
sI1084
F8.4368352180019386
sI1085
F4.9200927912591945
sI1086
F3.2193931056072751
sI1087
F35.59663424808015
sI1088
F-3.0667230638023923
sI1089
F13.600121519415683
sI1090
F4.8636956814288101
sI1091
F3.3046970733480872
sI1092
F-4.6124749173519008
sI1093
F35.548927643244411
sI1094
F5.3842340964880817
sI1095
F-2.4330730987350817
sI1096
F11.324790677622554
sI1097
F22.705193037425158
sI1098
F2.5387204018707719
sI1099
F17.999342689090049
sI1100
F9.0993135808140906
sI1101
F13.158394146770556
sI1102
F35.811081300070924
sI1103
F4.9928219629095087
sI1104
F3.3952157048965077
sI1105
F-3.8658987814468282
sI1106
F1.7206172319730739
sI1107
F2.5111188154274631
sI1108
F9.6786556076942887
sI1109
F1.6436033241982655
sI1110
F2.0589531276418382
sI1111
F13.351320115040984
sI1112
F-1.9550823447462924
sI1113
F-2.7743893473374515
sI1114
F11.461924127558172
sI1115
F0.82583930791231619
sI1116
F11.352708784164077
sI1117
F10.25867346344077
sI1118
F9.4979752124715233
sI1119
F1.3932542283540892
sI1120
F14.644678189277519
sI1121
F3.23086220707384
sI1122
F4.9735164182896199
sI1123
F7.8926481284932972
sI1124
F2.9184850655441505
sI1125
F2.1892179619769703
sI1126
F6.6453740289187948
sI1127
F11.87175536143312
sI1128
F-5.4214022919381248
sI1129
F13.455776210507089
sI1130
F9.360549168459503
sI1131
F3.2549196347751357
sI1132
F3.4381232589464075
sI1133
F7.1349862530735049
sI1134
F-0.60539253924090264
sI1135
F12.405268114532564
sI1136
F5.1079121440942039
sI1137
F3.4410395447360083
sI1138
F7.2405839157186485
sI1139
F-3.9633305559878607
sI1140
F11.495219873821656
sI1141
F15.384470553627722
sI1142
F1.3627846672992243
sI1143
F6.5833129566394799
sI1144
F4.6902425420148779
sI1145
F6.8295811619610172
sI1146
F2.9599470963013603
sI1147
F-1.4750790822015245
sI1148
F7.4604923747117162
sI1149
F5.1289126950998902
sI1150
F8.4798843165738997
sI1151
F0.82910196277398029
sI1152
F36.185432899851172
sI1153
F21.631890667906191
sI1154
F-1.9325784001777384
sI1155
F1.9532477797519914
sI1156
F4.490786626526357
sI1157
F1.0519798807086844
sI1158
F1.1376460567107534
sI1159
F1.8122674252625395
sI1160
F12.193643236131249
sI1161
F4.5369944581425887
sI1162
F5.0219237237959575
sI1163
F5.5204810808981026
sI1164
F-0.82823936645559215
sI1165
F-1.117016488453624
sI1166
F3.3014840484482844
sI1167
F-3.2995008810772433
sI1168
F3.1621718316601499
sI1169
F-3.6827184725568136
sI1170
F35.811081300070761
sI1171
F-1.551489532129674
sI1172
F14.626434010896316
sI1173
F8.9061512318936416
sI1174
F3.6957138408864205
sI1175
F9.1094304257307996
sI1176
F9.2446712553174226
sI1177
F2.2333476858742025
sI1178
F12.648007406511161
sI1179
F6.0545930208426491
sI1180
F10.617637185492734
sI1181
F3.1067647758331089
sI1182
F9.3014770065924353
sI1183
F9.4326347325495465
sI1184
F8.4965944508105586
sI1185
F8.0793445474118144
sI1186
F-0.10847912844654495
sI1187
F3.6537380962283712
sI1188
F4.1851461388959148
sI1189
F11.604691012634214
sI1190
F-1.584357111947239
sI1191
F10.405718742014983
sI1192
F-1.0821907900778078
sI1193
F-0.18292356936699608
sI1194
F3.4992687590456608
sI1195
F-1.056460244874728
sI1196
F10.067689083655509
sI1197
F7.2021765399042295
sI1198
F11.748892044539595
sI1199
F3.3871185925636791
sI1200
F1.8204213920193055
sI1201
F19.589811595072259
sI1202
F5.5073408341969667
sI1203
F1.1741621513946017
sI1204
F-1.6907732347493876
sI1205
F3.2084781365451134
sI1206
F4.2338337416470058
sI1207
F15.77677239088764
sI1208
F13.47555029023211
sI1209
F35.548926877074493
sI1210
F35.54892687707445
sI1211
F11.297549643229976
sI1212
F19.322368994413452
sI1213
F10.863297430475644
sI1214
F3.4829833636505287
sI1215
F2.2711664682692989
sI1216
F14.472659631108527
sI1217
F9.5803995497319789
sI1218
F2.176414317689348
sI1219
F-1.4441861981571855
sI1220
F1.4859339554670903
sI1221
F1.2881842423977086
sI1222
F14.450584033060863
sI1223
F1.0575022864440058
sI1224
F4.0789011809268754
sI1225
F16.264596074292545
sI1226
F14.421510915427003
sI1227
F6.4230023656938027
sI1228
F4.5329712080865221
sI1229
F4.7915285309640545
sI1230
F9.010728972122239
sI1231
F7.9054366474701565
sI1232
F4.2125184303217136
sI1233
F14.530517837416205
sI1234
F17.215572974573721
sI1235
F13.831923146859239
sI1236
F2.3814674046158544
sI1237
F1.8442665719014439
sI1238
F4.4173301172546164
sI1239
F2.6819994548319954
sI1240
F-3.3293693692739543
sI1241
F-2.2048059579750192
sI1242
F8.3716071493665289
sI1243
F10.550724401538293
sI1244
F10.077398421755131
sI1245
F3.4821081613280964
sI1246
F7.5583480819065603
sI1247
F-2.2472421625584955
sI1248
F16.137460113538044
sI1249
F7.5992140428128216
sI1250
F7.2091708317162952
sI1251
F13.112164564756997
sI1252
F1.43251210035155
sI1253
F32.979227890366609
sI1254
F9.9970265694898259
sI1255
F3.4865489393889888
sI1256
F9.7608525300606335
sI1257
F10.811855042354519
sI1258
F-2.0542591521089091
sI1259
F8.2738274566169423
sI1260
F4.1055616984621421
sI1261
F-0.31999047376126111
sI1262
F2.5497086580023445
sI1263
F14.108435224373538
sI1264
F2.4361267567354301
sI1265
F-2.3408477935122387
sI1266
F14.599276517596506
sI1267
F4.0140983176875986
sI1268
F-4.6402960232496016
sI1269
F7.1498223900084179
sI1270
F20.248533596189091
sI1271
F15.134287995460962
sI1272
F-1.2412727283836937
sI1273
F9.2878374670669057
sI1274
F13.286390577156782
sI1275
F10.852758578913836
sI1276
F25.04189229991783
sI1277
F8.4042325662969102
sI1278
F8.4399996840934435
sI1279
F-1.7339767867989533
sI1280
F4.7111687182394038
sI1281
F13.757137672605513
sI1282
F0.63815866367512952
sI1283
F0.71907855290150846
sI1284
F14.897120948980675
sI1285
F8.5308449511896871
sI1286
F10.720549277109653
sI1287
F-4.1141312974210686
sI1288
F12.0678053687108
sI1289
F4.8102687839768796
sI1290
F-5.616195176606344
sI1291
F-99.399999999998627
sI1292
F10.977247874016172
sI1293
F8.4947371161038809
sI1294
F10.345089623231413
sI1295
F-1.5624023087727461
sI1296
F5.5204810758526532
sI1297
F3.7653534105465578
sI1298
F32.373460634921173
sI1299
F8.8720815980822039
sI1300
F4.2487629566991885
sI1301
F6.278600428522461
sI1302
F-1.7540880496414011
sI1303
F4.0945246194648455
sI1304
F4.468704711245489
sI1305
F7.6017873526509501
sI1306
F6.0399366486687693
sI1307
F-1.5695930809840717
sI1308
F11.939392909071884
sI1309
F3.6790642054553624
sI1310
F3.592691004789244
sI1311
F-3.736153725018593
sI1312
F2.0292988426319809
sI1313
F-0.32016565604499797
sI1314
F10.854781887766988
sI1315
F-1.2200593430834501
sI1316
F16.647323155342935
sI1317
F5.9344748078929381
sI1318
F2.8338580802109181
sI1319
F2.4268391575716626
sI1320
F-1.2951445964106683
sI1321
F15.398483484283888
sI1322
F2.1788203747602166
sI1323
F2.9581878916485813
sI1324
F5.9543547790791145
sI1325
F9.7962214067821467
sI1326
F-2.0080459648008246
sI1327
F-0.86512838909713108
sI1328
F7.8056179942819188
sI1329
F0.074509867973988841
sI1330
F7.8311500643557519
sI1331
F13.142352242476754
sI1332
F7.3359107940634738
sI1333
F-1.2105898306698903
sI1334
F-4.3695813081385531
sI1335
F-1.9078629297715912
sI1336
F4.5210045158101284
sI1337
F1.0288782558604426
sI1338
F-0.39544104330444924
sI1339
F14.271241704940369
sI1340
F11.756801219379263
sI1341
F6.884009916615728
sI1342
F-1.9279179150478198
sI1343
F2.9246531936152507
sI1344
F4.6493495781318925
sI1345
F16.237617317393699
sI1346
F0.87112109750819222
sI1347
F0.90379953844075511
sI1348
F6.0056772494308444
sI1349
F0.027271240873173896
sI1350
F-2.8325287564093511
sI1351
F19.371644559394607
sI1352
F0.32310533134494257
sI1353
F22.590854104561469
sI1354
F5.4380017429689289
sI1355
F-1.8066903584848504
sI1356
F1.1308157019467375
sI1357
F4.0427113923418796
sI1358
F0.82678176210478949
sI1359
F5.6394485407162716
sI1360
F4.6934450489198154
sI1361
F4.8503020565002251
sI1362
F0.10498769539121203
sI1363
F10.825926600224289
sI1364
F4.7932449531349173
sI1365
F0.54935869317799568
sI1366
F0.86102679854783792
sI1367
F0.30217667574447959
sI1368
F4.6728520362030554
sI1369
F20.296344418551641
sI1370
F35.548936660760099
sI1371
F14.862012395626754
sI1372
F4.3943306521444816
sI1373
F-2.0975227587039376
sI1374
F20.248533596189176
sI1375
F6.9910068683783377
sI1376
F2.1031990340667264
sI1377
F6.7113364781931537
sI1378
F-0.39055602735510742
sI1379
F2.5990940427064384
sI1380
F6.6895169205405285
sI1381
F36.181364441142975
sI1382
F-2.9503721126989433
sI1383
F5.4741623452236974
sI1384
F2.7162860808982892
sI1385
F8.5586519299634851
sI1386
F8.7493275908963763
sI1387
F17.284309697418443
sI1388
F18.431968564040226
sI1389
F10.64152031234682
sI1390
F1.4746812924864114
sI1391
F30.550711751287977
sI1392
F5.0172473938315711
sI1393
F1.2533799928615439
sI1394
F-0.59202137755617112
sI1395
F10.785278559030077
sI1396
F3.9791032779752564
sI1397
F-2.042456874074154
sI1398
F12.532254956584618
sI1399
F-1.5722501461744181
sI1400
F-0.7299772154964308
sI1401
F2.6196847532047141
sI1402
F2.4129585268032852
sI1403
F4.5469700098314698
sI1404
F0.80985858320886805
sI1405
F3.7929564720277846
sI1406
F17.818476866096503
sI1407
F11.053672616768832
sI1408
F14.624535132503446
sI1409
F6.115503488865258
sI1410
F-2.4480205125310528
sI1411
F4.69429174977346
sI1412
F0.69780676978871958
sI1413
F2.6250731056405288
sI1414
F10.228540563774482
sI1415
F12.471425056789379
sI1416
F20.309668135550069
sI1417
F4.5692935843354183
sI1418
F10.442454839804284
sI1419
F1.5986827997915589
sI1420
F3.0671005097959787
sI1421
F17.194287897814348
sI1422
F-2.5939685149599661
sI1423
F11.031916274567198
sI1424
F1.5506147963064849
sI1425
F3.8250885986444678
sI1426
F6.1481696615852846
sI1427
F3.8467545099873663
sI1428
F1.4821826328123153
sI1429
F10.969099470819058
sI1430
F15.076451812258821
sI1431
F9.0402858497206733
sI1432
F0.67437084151338289
sI1433
F4.0625855820421348
sI1434
F2.876662107062903
sI1435
F14.998991116822289
sI1436
F7.8671288490511548
sI1437
F-5.762160019642157
sI1438
F7.2376626077574633
sI1439
F13.638451471315458
sI1440
F17.568922144065002
sI1441
F8.8927554330530079
sI1442
F11.731191177304373
sI1443
F30.55071175128802
sI1444
F0.91419841657744882
sI1445
F13.061821036440174
sI1446
F7.5496840226828139
sI1447
F3.0225424946066353
sI1448
F7.4852782717497712
sI1449
F6.1054049491147238
sI1450
F10.943144508956642
sI1451
F5.3286939184536948
sI1452
F5.0277700461284391
sI1453
F3.2658291009123599
sI1454
F-2.9337159872730934
sI1455
F3.2326104375810734
sI1456
F1.3818533658078973
sI1457
F13.243321064958018
sI1458
F0.76931673553003455
sI1459
F3.4911940859923449
sI1460
F12.669661631570246
sI1461
F18.77951135574968
sI1462
F5.2299891577902482
sI1463
F1.23963769535676
sI1464
F13.078913671288467
sI1465
F1.4567555013659135
sI1466
F11.459605478029404
sI1467
F1.1947348440877252
sI1468
F-4.3328230907923695
sI1469
F2.8662947753106005
sI1470
F4.6459440930284268
sI1471
F6.1943386165293015
sI1472
F15.714565056459385
sI1473
F-1.8066903612459486
sI1474
F4.4492171291687947
sI1475
F32.373470186517501
sI1476
F-1.2678515362078127
sI1477
F3.1166326250782861
sI1478
F-3.9804973851189924
sI1479
F13.378007031015521
sI1480
F6.3310752137502755
sI1481
F4.5997049261975738
sI1482
F3.5879572551814309
sI1483
F3.9129616692922848
sI1484
F19.300251006654396
sI1485
F3.4829833534931942
sI1486
F-0.45592870614612124
sI1487
F4.8341544821802582
sI1488
F9.673464861913029
sI1489
F2.4903447267410108
sI1490
F7.3465872298945243
sI1491
F4.2738060995011899
sI1492
F1.7843435389195652
sI1493
F5.2374184761032563
sI1494
F6.8233298794509292
sI1495
F13.157704534681656
sI1496
F0.96320138195022764
sI1497
F4.6301108410326837
sI1498
F2.0150830575142282
sI1499
F5.8859764995538564
sI1500
F9.3425075042969343
sI1501
F1.5503460628218302
sI1502
F18.216902057348477
sI1503
F7.0206773034651615
sI1504
F6.1468044816066527
sI1505
F-4.5991999447262835
sI1506
F11.586202239594648
sI1507
F4.5755229549682461
sI1508
F-1.6813406504330137
sI1509
F10.052343774103459
sI1510
F6.9142714724706238
sI1511
F5.9638692677451601
sI1512
F1.9301277881833174
sI1513
F-4.49397729723088
sI1514
F12.097727070808908
sI1515
F4.3057117417147381
sI1516
F-0.22356734323939603
sI1517
F0.96242504725646871
sI1518
F3.5793322929337217
sI1519
F7.7302965558511083
sI1520
F8.2931266530849168
sI1521
F1.8896725019453733
sI1522
F0.10995900088894728
sI1523
F15.86485337997132
sI1524
F10.785278559030079
sI1525
F10.158220013229998
sI1526
F6.4259959125377097
sI1527
F11.956471689284717
sI1528
F10.591904567943619
sI1529
F10.863647869314025
sI1530
F9.5482645778448241
sI1531
F5.227335281023807
sI1532
F1.230231080389566
sI1533
F-4.612474924355225
sI1534
F5.4529545772817958
sI1535
F2.8135526979269501
sI1536
F4.7019123198431529
sI1537
F-2.1519749263707606
sI1538
F6.0126724290262574
sI1539
F10.039465774470058
sI1540
F6.6153805761803124
sI1541
F6.7552815736878404
sI1542
F1.3483339203280447
sI1543
F18.546307484350134
sI1544
F-2.0534262489291466
sI1545
F18.69975950618899
sI1546
F10.675408155503497
sI1547
F-0.23782609583492165
sI1548
F8.8542150316043795
sI1549
F3.2177633172915079
sI1550
F4.3799456716462499
sI1551
F6.6066318584486785
sI1552
F24.784637922998648
sI1553
F12.941780214976019
sI1554
F13.832656743778987
sI1555
F5.7814701566293687
sI1556
F7.7788224560069539
sI1557
F1.7326220826137999
sI1558
F0.67931458873049233
sI1559
F1.6561698399876594
sI1560
F2.1559982634486046
sI1561
F5.3418298930422345
sI1562
F6.1399354237561683
sI1563
F4.8163674593156074
sI1564
F11.895805861223616
sI1565
F12.483204890770619
sI1566
F0.35967310487129045
sI1567
F7.2897621106978665
sI1568
F3.0418665882444214
sI1569
F12.322640257231019
sI1570
F7.8234425053032917
sI1571
F-1.4012391191010716
sI1572
F8.6718170680720164
sI1573
F2.6898129419550179
sI1574
F10.136225581018619
sI1575
F2.621712441623723
sI1576
F7.7963471407891127
sI1577
F4.2168324854306682
sI1578
F-1.0735481292104148
sI1579
F8.1441538264948807
sI1580
F-2.4704980105356107
sI1581
F2.4287065316046901
sI1582
F12.209782934010118
sI1583
F0.91795159253127245
sI1584
F12.856589739603393
sI1585
F-1.1915769467550539
sI1586
F15.250470078107018
sI1587
F10.783614681801334
sI1588
F3.453335873592275
sI1589
F9.2693996021750937
sI1590
F11.209836430401817
sI1591
F8.2833066743192383
sI1592
F4.3871375439766718
sI1593
F20.965775480397312
sI1594
F19.385486971364102
sI1595
F6.1126409670787023
sI1596
F5.5171130807691107
sI1597
F5.5343383029802773
sI1598
F1.629627111282999
sI1599
F32.979299921138157
sI1600
F7.0215639560747247
sI1601
F-2.0160348132023476
sI1602
F5.295330398845894
sI1603
F2.9227488746840904
sI1604
F-0.98764654026542187
sI1605
F-0.39184607182666875
sI1606
F20.405613060319371
sI1607
F11.100219884737745
sI1608
F0.96700741593557371
sI1609
F6.3639945323854246
sI1610
F2.8792343465797403
sI1611
F1.8722136537970506
sI1612
F-1.2536022529230793
sI1613
F-0.36796179382172012
sI1614
F0.90379953021771531
sI1615
F2.556592436545408
sI1616
F4.3616410247006954
sI1617
F8.6342833411110664
sI1618
F32.373470186517473
sI1619
F-1.4864548141819633
sI1620
F8.1129565874519667
sI1621
F2.7175316193681662
sI1622
F-0.41867540313215657
sI1623
F10.757064652135112
sI1624
F18.807725268573311
sI1625
F14.93111203960588
sI1626
F1.1785076837034696
sI1627
F10.478311929402038
sI1628
F0.73502856178049214
sI1629
F6.4118831842130186
sI1630
F4.531719024449929
sI1631
F1.3702376102692715
sI1632
F3.1918007271491025
sI1633
F0.96242504293906295
sI1634
F1.4783722855571351
sI1635
F7.8403075643876692
sI1636
F2.4368869165663112
sI1637
F1.0148954047491809
sI1638
F-1.4386038041241103
sI1639
F0.48180251168789467
sI1640
F15.483673947553754
sI1641
F1.0660171840550774
sI1642
F0.29280842976954014
sI1643
F3.2069767229727679
sI1644
F0.7878055121541494
sI1645
F2.7326056379093315
sI1646
F8.9418245068215985
sI1647
F2.4483392469488496
sI1648
F6.8343684990020899
sI1649
F-0.59202137897116103
sI1650
F11.458275829147592
sI1651
F0.64470430255156774
sI1652
F2.0045325457951737
sI1653
F12.856589737955556
sI1654
F13.188154645151327
sI1655
F-3.8969061230335917
sI1656
F10.886251072950685
sI1657
F36.105099062115066
sI1658
F7.230214175463221
sI1659
F11.681717682427257
sI1660
F5.5686454127141189
sI1661
F4.8939300776114578
sI1662
F-0.2024856853547819
sI1663
F35.548942658574916
sI1664
F5.5427899834776149
sI1665
F4.6696614336093578
sI1666
F20.16866550398489
sI1667
F-3.1714776885450968
sI1668
F9.6728795668438448
sI1669
F-3.4447006464271306
sI1670
F2.1518494883316071
sI1671
F-4.5110171041030576
sI1672
F6.6450018385388541
sI1673
F4.4490057462171402
sI1674
F9.8682671894611982
sI1675
F12.762631853934932
sI1676
F2.9349744744501116
sI1677
F10.305974021768007
sI1678
F4.9168682112405477
sI1679
F15.184106555799406
sI1680
F9.8656339831649529
sI1681
F14.648841568703261
sI1682
F6.4775765396892453
sI1683
F-0.71587050780254557
sI1684
F-1.9800627174015781
sI1685
F5.7372172963052073
sI1686
F11.543030677868606
sI1687
F3.7355417367128445
sI1688
F14.410801759399488
sI1689
F15.772922009809186
sI1690
F-1.3519330912508889
sI1691
F18.169091240904478
sI1692
F4.7060709010666937
sI1693
F7.9853360479162765
sI1694
F6.9459674074928648
sI1695
F5.6082072134408492
sI1696
F-1.5148390577037212
sI1697
F0.31151211157341607
sI1698
F13.590921699435905
sI1699
F6.915909563490092
sI1700
F-5.7663348844519051
sI1701
F17.477925279358754
sI1702
F-2.7469352393430615
sI1703
F1.1520368283815057
sI1704
F-3.2706545018588136
sI1705
F7.0871821776771231
sI1706
F9.4136870321898574
sI1707
F-0.39182241040802979
sI1708
F9.7130470301768881
sI1709
F-4.3997998591959062
sI1710
F3.2260230819589282
sI1711
F14.626532790271769
sI1712
F4.814109682138124
sI1713
F13.201685797725276
sI1714
F2.8786514690876888
sI1715
F14.682744025049711
sI1716
F6.9025309894988878
sI1717
F14.431663658416481
sI1718
F19.433297789025083
sI1719
F16.894290077964609
sI1720
F8.9143034463105
sI1721
F4.7542577903507013
sI1722
F12.115586836315822
sI1723
F3.838717409299623
sI1724
F1.8416154377023426
sI1725
F6.035903305323342
sI1726
F3.2501382547047708
sI1727
F-2.5894215475944646
sI1728
F-1.1143917216030101
sI1729
F-2.4480205148879999
sI1730
F1.1280117865500108
sI1731
F-7.8416015628427793
sI1732
F1.4035417981796958
sI1733
F2.519740183604898
sI1734
F0.49924284765156124
sI1735
F7.2381837526460879
sI1736
F21.512740562007579
sI1737
F9.5458937921946028
sI1738
F6.4230241089506972
sI1739
F7.121251296213889
sI1740
F13.716058909873965
sI1741
F0.61937261595602833
sI1742
F19.552448019313161
sI1743
F12.895516821092967
sI1744
F12.025987693760879
sI1745
F36.185480468683636
sI1746
F9.7918412591303241
sI1747
F1.1118120024540792
sI1748
F1.6096136863932005
sI1749
F11.899969247493173
sI1750
F9.9388302516358156
sI1751
F1.4410939526564712
sI1752
F-3.3701329595968748
sI1753
F3.7072603584946169
sI1754
F5.1071883468986954
sI1755
F9.4247136008799473
sI1756
F2.5858963817205183
sI1757
F12.387258794462673
sI1758
F1.4511397658655971
sI1759
F6.4373656583494112
sI1760
F14.766994831674376
sI1761
F-3.1616199745813587
sI1762
F11.007961448739398
sI1763
F13.012060251026149
sI1764
F3.303167578532924
sI1765
F5.8940022383013773
sI1766
F3.5574173507025169
sI1767
F-0.36280335412062037
sI1768
F7.3429049251123164
sI1769
F3.9999900176265495
sI1770
F15.98027835700546
sI1771
F-2.2383346093725329
sI1772
F17.247034156088709
sI1773
F8.360970488603872
sI1774
F3.0052110748922267
sI1775
F-1.124946946375516
sI1776
F0.8239952369714123
sI1777
F3.7429680573906636
sI1778
F15.393564117914829
sI1779
F11.353004563521663
sI1780
F5.2494415966517778
sI1781
F1.7943468055402878
sI1782
F13.600256460508602
sI1783
F0.77316476811503865
sI1784
F0.42720797198599525
sI1785
F6.7435502016365643
sI1786
F6.6800035503902659
sI1787
F2.504167257169275
sI1788
F8.6268060850756392
sI1789
F2.9047504735688729
sI1790
F3.3461959331214892
sI1791
F-0.003664024295506163
sI1792
F2.7368792359139262
sI1793
F12.172192290449582
sI1794
F0.44484162068158833
sI1795
F2.6425847383771552
sI1796
F4.4407090028935805
sI1797
F7.2331436260866804
sI1798
F5.128424703386278
sI1799
F-0.8581060341481338
sI1800
F-0.085579625659548575
sI1801
F5.9351989887411349
sI1802
F4.3743724931459198
sI1803
F-1.1698461186371103
sI1804
F5.093911098364714
sI1805
F2.1890046244831565
sI1806
F5.8758699411956448
sI1807
F2.9158885368492165
sI1808
F9.8991351279885968
sI1809
F-0.88506522206697569
sI1810
F4.8184763482964383
sI1811
F4.4050420332739515
sI1812
F11.307250556221524
sI1813
F5.4432165780920201
sI1814
F8.5006674077310596
sI1815
F11.956413971947201
sI1816
F13.796984215403796
sI1817
F0.96030137609251121
sI1818
F12.621174874232167
sI1819
F27.248736420035211
sI1820
F-5.1968927115941934
sI1821
F9.8683751928982435
sI1822
F2.9143302303921494
sI1823
F10.957048800623099
sI1824
F-2.0534262573986126
sI1825
F6.2835772326488488
sI1826
F3.4829833378944284
sI1827
F-0.78451979981310549
sI1828
F1.0940811259388408
sI1829
F3.7587275001868479
sI1830
F2.3911868806345007
sI1831
F3.979103275226759
sI1832
F-2.5939685331503419
sI1833
F4.4217067332943598
sI1834
F11.178420165408951
sI1835
F-5.7663348920155091
sI1836
F-2.4502645001745593
sI1837
F13.638451426279397
sI1838
F36.157559487474217
sI1839
F10.809592340658273
sI1840
F8.4248026844927715
sI1841
F32.37347268371979
sI1842
F0.49508441940331133
sI1843
F35.92505638339906
sI1844
F15.588844077176931
sI1845
F0.72750845009792542
sI1846
F2.2507287141616605
sI1847
F-5.8155952753231386
sI1848
F3.9293598446102864
sI1849
F4.1336273053480079
sI1850
F-0.23782611244677687
sI1851
F4.5865043734071316
sI1852
F5.9433439572880316
sI1853
F1.7592758622238209
sI1854
F2.5688170317649366
sI1855
F7.3689457337319064
sI1856
F3.6020919992414395
sI1857
F10.781115154054316
sI1858
F8.8302713348383879
sI1859
F4.2659174463042726
sI1860
F-6.7876189729391747
sI1861
F4.0571564717013091
sI1862
F2.8482510137014154
sI1863
F0.58095655009523706
sI1864
F15.318416096629894
sI1865
F13.328458249874041
sI1866
F10.173112129768072
sI1867
F-2.8170646471171734
sI1868
F6.3783202775253063
sI1869
F3.1331998072289782
sI1870
F8.8872432633371616
sI1871
F0.69884113262334258
sI1872
F-1.6916507823705802
sI1873
F4.5818461234262378
sI1874
F11.856110731787076
sI1875
F12.815162621919098
sI1876
F4.3297244765079368
sI1877
F9.6694504456981267
sI1878
F5.139629948648829
sI1879
F7.125366492505318
sI1880
F-0.36861172212460747
sI1881
F16.070822521752145
sI1882
F-0.37118369986851418
sI1883
F4.9323254992896972
sI1884
F1.2681288200292533
sI1885
F4.100767710800123
sI1886
F-3.171477696653052
sI1887
F-5.2566936926693391
sI1888
F6.7492472268078521
sI1889
F19.701568647511728
sI1890
F36.157577862111673
sI1891
F3.391829135597912
sI1892
F3.9956103396990157
sI1893
F15.440965848006091
sI1894
F20.518668456424226
sI1895
F9.2588332457681162
sI1896
F16.35252660325461
sI1897
F13.866006483174363
sI1898
F12.285174883249896
sI1899
F2.3643654639149134
sI1900
F18.807725260443007
sI1901
F9.6694504433502271
sI1902
F9.6738613707695702
sI1903
F1.6990619007394003
sI1904
F16.054689169227661
sI1905
F0.11758804582381704
sI1906
F3.0447018639475578
sI1907
F6.6189191918171186
sI1908
F5.7281259994602518
sI1909
F14.301308616184162
sI1910
F15.827786035433935
sI1911
F13.753655712218865
sI1912
F0.025182363969233346
sI1913
F16.89949135451737
sI1914
F8.3038149285033018
sI1915
F0.024137173588736127
sI1916
F-0.78918735534113138
sI1917
F-2.8325287671598578
sI1918
F1.8978669540090747
sI1919
F2.192146944843131
sI1920
F4.9132999019581094
sI1921
F-2.9337159976335863
sI1922
F9.2829180958608788
sI1923
F3.3836051230133224
sI1924
F16.131772299043938
sI1925
F1.9589626116813144
sI1926
F1.1416797863459136
sI1927
F15.164745103011775
sI1928
F9.6809901389538968
sI1929
F1.4895850222296358
sI1930
F15.916877695188637
sI1931
F6.5866788082082408
sI1932
F1.432481622366959
sI1933
F8.9554930867093248
sI1934
F2.6201995802373741
sI1935
F15.250470062954799
sI1936
F6.8351400605111365
sI1937
F3.0638281419736018
sI1938
F9.7182359201763084
sI1939
F9.7878552790034146
sI1940
F-2.383945931371374
sI1941
F22.991123882477464
sI1942
F1.5199542958686059
sI1943
F8.1490989765026978
sI1944
F15.350367219822424
sI1945
F11.619021933573894
sI1946
F5.5865954816454568
sI1947
F1.8726778345374324
sI1948
F3.2691715890907123
sI1949
F0.12435148740850233
sI1950
F7.2669599281823407
sI1951
F-1.9372822159325944
sI1952
F0.42720796857639232
sI1953
F6.4024544806998911
sI1954
F15.270092688337222
sI1955
F0.1406039044604972
sI1956
F1.084264498667844
sI1957
F2.8135526800313602
sI1958
F5.1310482219947424
sI1959
F2.4561851796787288
sI1960
F9.6957678887483443
sI1961
F3.967902483053257
sI1962
F16.843592688806631
sI1963
F2.1088520192119109
sI1964
F3.919396815416762
sI1965
F4.4002391251147044
sI1966
F1.9129049382968208
sI1967
F10.580972136265594
sI1968
F-1.1648046702523762
sI1969
F19.042750733962563
sI1970
F14.721761283879678
sI1971
F12.187159045899476
sI1972
F1.381853353655726
sI1973
F15.108625735687671
sI1974
F16.84093872392662
sI1975
F10.562878041404003
sI1976
F7.879373741651345
sI1977
F8.7604793151763349
sI1978
F11.679742040974695
sI1979
F8.4245260224835175
sI1980
F7.4486625405456408
sI1981
F-3.1721439031673091
sI1982
F15.173886673392916
sI1983
F1.2286082432323431
sI1984
F8.8888075981856591
sI1985
F12.900653730660034
sI1986
F2.1257657858016366
sI1987
F3.2879525070558264
sI1988
F14.931112024854778
sI1989
F3.3398404985385826
sI1990
F3.8136458823451855
sI1991
F13.979410866465129
sI1992
F0.48763440105840317
sI1993
F14.541303672021487
sI1994
F13.045126311080729
sI1995
F0.61937260080871992
sI1996
F6.35010637293224
sI1997
F0.16110790782901913
sI1998
F19.241285701728412
sI1999
F3.333925572678488
sI2000
F18.726765077936566
sI2001
F2.559103135677061
sI2002
F-0.63657264318321871
sI2003
F35.596652908195693
sI2004
F5.6809844066049786
sI2005
F13.603654163501245
sI2006
F7.3037022598853412
sI2007
F-5.1995718009861314
sI2008
F22.304598420619069
sI2009
F36.105137807542562
sI2010
F5.6453240721335298
sI2011
F8.7041729951217448
sI2012
F-3.751765585577838
sI2013
F0.57110184116710572
sI2014
F6.7761463834040567
sI2015
F3.3677328487903306
sI2016
F1.2173381460816157
sI2017
F0.47851188010741463
sI2018
F11.091586777583419
sI2019
F8.0814580563984517
sI2020
F1.737402084720495
sI2021
F8.898073550743236
sI2022
F4.1703795246800812
sI2023
F8.6245308761134307
sI2024
F2.6483729871762525
sI2025
F3.7292462314322758
sI2026
F-1.9557485816020139
sI2027
F6.8810620769365469
sI2028
F9.3115522128278609
sI2029
F-3.0667230858297048
sI2030
F10.621295669342659
sI2031
F0.75825938205703647
sI2032
F20.768843877008074
sI2033
F-2.4506996054660868
sI2034
F5.4085391656366655
sI2035
F30.550789032987144
sI2036
F15.199577636645465
sI2037
F10.239125324430555
sI2038
F3.1694612609975192
sI2039
F7.2702120687758676
sI2040
F4.271210468158622
sI2041
F15.19079952819216
sI2042
F3.4307313048248953
sI2043
F6.8531395495556948
sI2044
F-6.0483730943510654
sI2045
F8.8196548372275849
sI2046
F7.5638172758439559
sI2047
F8.929220181992255
sI2048
F-3.8658987980506629
sI2049
F-0.2463657474956692
sI2050
F0.56272793564280388
sI2051
F-3.8863574566224934
sI2052
F5.7935740505782825
sI2053
F3.5644214847851128
sI2054
F5.9117048319958343
sI2055
F15.398621500216905
sI2056
F6.5907931926262959
sI2057
F25.623820395592418
sI2058
F-0.78451981471161014
sI2059
F6.1649035153476959
sI2060
F-3.171477701107674
sI2061
F7.9609580160009328
sI2062
F2.1661517398276953
sI2063
F4.8812147761672025
sI2064
F3.6161054357702795
sI2065
F2.0046041584959604
sI2066
F1.4276443030583565
sI2067
F4.6631049742088555
sI2068
F6.4789453483370076
sI2069
F10.735498681117599
sI2070
F1.5419220345455091
sI2071
F2.8094862229915898
sI2072
F8.4501592623824457
sI2073
F9.0124636872598813
sI2074
F9.1588404160597445
sI2075
F9.5060729421370205
sI2076
F5.3882343458444089
sI2077
F1.0029316007338682
sI2078
F4.9821066996110526
sI2079
F5.5815106604112845
sI2080
F0.32133515309126404
sI2081
F2.9500064030425737
sI2082
F7.1941477253725088
sI2083
F9.3784741972134764
sI2084
F7.7679998529160352
sI2085
F4.0709338665333368
sI2086
F0.50082062766305369
sI2087
F9.3485598453612084
sI2088
F2.2405494489084083
sI2089
F30.55079482139098
sI2090
F-3.3955957259316181
sI2091
F9.4452588302745752
sI2092
F8.1713177519380373
sI2093
F-1.1832119071176124
sI2094
F9.5361485828387931
sI2095
F13.171028379300813
sI2096
F-4.038746785178275
sI2097
F1.5914061739160239
sI2098
F2.8826291918077711
sI2099
F16.728283304288034
sI2100
F4.5020062258230027
sI2101
F2.5330212305896187
sI2102
F1.7153730269715179
sI2103
F-1.9452246595338549
sI2104
F5.8927321494229181
sI2105
F3.3691754938902232
sI2106
F-2.3258072941495724
sI2107
F0.40496516389446668
sI2108
F-0.57006193328569332
sI2109
F0.87344831843193149
sI2110
F8.4799622170008941
sI2111
F4.9055192528566884
sI2112
F13.488949032098676
sI2113
F3.56911333038645
sI2114
F-4.1501113246482753
sI2115
F2.8487582622023186
sI2116
F5.7051236697691392
sI2117
F7.5006877482092005
sI2118
F1.6961610620604866
sI2119
F4.5079302155907612
sI2120
F15.134287981584917
sI2121
F2.1081704243218766
sI2122
F0.52542750816321737
sI2123
F0.14855072488745491
sI2124
F9.5926132083575286
sI2125
F7.3634862135019032
sI2126
F6.1054049336267306
sI2127
F5.2917609877875629
sI2128
F9.3888722598022252
sI2129
F3.1946701794600809
sI2130
F8.7074509319103104
sI2131
F5.2829978240040445
sI2132
F3.7916968049125419
sI2133
F12.454677354724716
sI2134
F21.552435256942029
sI2135
F13.102862764332816
sI2136
F-1.5514895439058809
sI2137
F11.104926702834783
sI2138
F5.7064446404086588
sI2139
F-1.152630081013315
sI2140
F1.708257828663069
sI2141
F8.6411078668836616
sI2142
F6.0921101542970186
sI2143
F10.821212152225279
sI2144
F-0.023944734237970167
sI2145
F-3.4133010612449239
sI2146
F7.9159103984645203
sI2147
F3.1323684602730704
sI2148
F0.30742675309849615
sI2149
F13.547755472354485
sI2150
F10.442827998323301
sI2151
F1.8890848509473803
sI2152
F4.8522558507714262
sI2153
F4.7835076440336382
sI2154
F0.36212086553407352
sI2155
F1.386468854701751
sI2156
F1.9580600957764984
sI2157
F10.19534225278305
sI2158
F4.5413553903979151
sI2159
F16.93096050527587
sI2160
F7.0912815040745549
sI2161
F-2.7525362307544903
sI2162
F7.0880958517631427
sI2163
F9.8402236151439251
sI2164
F12.139313216688855
sI2165
F13.612520128247146
sI2166
F13.999361768673625
sI2167
F-0.8531623035069863
sI2168
F-3.0641771749844637
sI2169
F15.489480282426429
sI2170
F13.070741913622699
sI2171
F3.7702578345555904
sI2172
F2.3877339336155305
sI2173
F2.6140117661992113
sI2174
F8.6005108554074319
sI2175
F-2.8686289075862414
sI2176
F-3.6140006021202331
sI2177
F13.644129654308353
sI2178
F0.97415156757182275
sI2179
F-0.87093058844139559
sI2180
F3.2288538814420464
sI2181
F4.0538633356874252
sI2182
F11.678092427888068
sI2183
F5.6921957380364674
sI2184
F10.023204819927066
sI2185
F-0.23969254508858095
sI2186
F0.23165969083676097
sI2187
F13.473765439406307
sI2188
F5.9958577325660869
sI2189
F9.8671814080555826
sI2190
F-1.0028934017743729
sI2191
F10.849440773801856
sI2192
F12.22844049660821
sI2193
F-0.11428697965393508
sI2194
F1.0758405405017721
sI2195
F0.87252774161103819
sI2196
F0.49943669174460714
sI2197
F6.5022831742480571
sI2198
F2.7782826548646495
sI2199
F18.726765066252071
sI2200
F13.673831643881289
sI2201
F7.944678148438042
sI2202
F3.0514408069754539
sI2203
F-0.36861173945137238
sI2204
F1.9420021071190794
sI2205
F6.9682677523329435
sI2206
F9.40306449960433
sI2207
F-0.13553778135216707
sI2208
F5.7021200383567496
sI2209
F-0.39182241996776845
sI2210
F-0.63198175291903969
sI2211
F1.8733599551234494
sI2212
F9.7720572970085282
sI2213
F9.0416653451955842
sI2214
F3.8665370610885539
sI2215
F2.7103526951648584
sI2216
F-1.3344480142156809
sI2217
F9.3835843418545775
sI2218
F-3.5942806103654625
sI2219
F-0.37118372190953142
sI2220
F2.5280075748694402
sI2221
F15.114846087303237
sI2222
F8.0159196596582234
sI2223
F4.5952944848075523
sI2224
F26.391197509621268
sI2225
F-1.5893936216496338
sI2226
F8.5321705442096558
sI2227
F-1.9999820165716498
sI2228
F0.61937259568381986
sI2229
F13.15684010278059
sI2230
F2.4445777575844527
sI2231
F11.697087745377399
sI2232
F3.9679024722963621
sI2233
F1.1648678465202711
sI2234
F-1.5800048511502893
sI2235
F-0.9611544172500025
sI2236
F3.1778161094072273
sI2237
F2.1417255780104849
sI2238
F-1.3148025668201404
sI2239
F9.8820825298837391
sI2240
F12.263820714765551
sI2241
F10.738237644243517
sI2242
F2.0504941537472106
sI2243
F3.746028218492385
sI2244
F3.8476085768063788
sI2245
F14.273084857143374
sI2246
F9.9467939726969501
sI2247
F-1.3344480145439348
sI2248
F-2.4699976045338015
sI2249
F3.6810884267042683
sI2250
F5.1891040677351157
sI2251
F36.185549747523453
sI2252
F2.6680323676834914
sI2253
F11.490642792560408
sI2254
F-2.734057186016126
sI2255
F4.1338787904149727
sI2256
F-1.8914238657446436
sI2257
F-2.0534262638304908
sI2258
F2.6328180034283406
sI2259
F11.104926701448864
sI2260
F2.627640062407643
sI2261
F12.8944877932854
sI2262
F5.6223084457846806
sI2263
F5.8098144412912527
sI2264
F12.969994093841509
sI2265
F-2.9375475876789334
sI2266
F0.87865328217207739
sI2267
F19.910716590836884
sI2268
F2.9004577960166462
sI2269
F30.547059742889719
sI2270
F3.3096726005147343
sI2271
F0.82254125431580838
sI2272
F8.2851454216344163
sI2273
F2.4753885100818116
sI2274
F4.2044952294968416
sI2275
F2.541697911478249
sI2276
F6.4751028453886352
sI2277
F0.42151147390050037
sI2278
F31.039431159281673
sI2279
F0.091629072168040504
sI2280
F10.893025998226161
sI2281
F5.1241433845030491
sI2282
F5.2387241997158913
sI2283
F7.9735270692943256
sI2284
F-0.40954937891912468
sI2285
F35.548976730468695
sI2286
F4.3713582747873492
sI2287
F5.8735827186849869
sI2288
F5.9568470059804852
sI2289
F-1.1912129784663406
sI2290
F5.763722255647501
sI2291
F-0.45637241722056288
sI2292
F18.494246681617238
sI2293
F10.570169494848393
sI2294
F-3.3955957305436275
sI2295
F0.98864356978233614
sI2296
F8.1099467686938187
sI2297
F4.6890567517825179
sI2298
F-0.65179725275178968
sI2299
F1.7943467800545978
sI2300
F2.1421648399951665
sI2301
F15.082401874671433
sI2302
F-0.52838770506835631
sI2303
F5.5572327637815722
sI2304
F-5.4750372724111145
sI2305
F-4.5865283045434504
sI2306
F11.332056408221526
sI2307
F7.3257848556149394
sI2308
F17.510522148058669
sI2309
F0.12435915468068137
sI2310
F23.368757809440698
sI2311
F-5.2566937009328054
sI2312
F1.8071225338245258
sI2313
F4.5837987966958043
sI2314
F7.3368318098165224
sI2315
F6.5644471207259736
sI2316
F6.3553524456244466
sI2317
F35.925137399812336
sI2318
F3.0243591825384537
sI2319
F1.3630451680474425
sI2320
F-3.5485117025694373
sI2321
F-4.8319777731930218
sI2322
F10.104961277769005
sI2323
F8.3668453574429726
sI2324
F-4.4316924183203632
sI2325
F3.3792892104703229
sI2326
F12.583685828924072
sI2327
F6.3859501876221829
sI2328
F1.8327284816128153
sI2329
F16.609959558904514
sI2330
F4.9677181663434498
sI2331
F4.180182376698145
sI2332
F0.025182345505646353
sI2333
F-1.8174646114861748
sI2334
F2.8215924336430556
sI2335
F-0.60045621844392194
sI2336
F16.221177584553281
sI2337
F2.3868682908252197
sI2338
F4.5141423513083172
sI2339
F15.797434765450829
sI2340
F-1.754088092632285
sI2341
F10.501265197711852
sI2342
F0.67931456413564961
sI2343
F6.5517045477010178
sI2344
F3.2069766977766312
sI2345
F15.420218548518521
sI2346
F11.057961115968251
sI2347
F9.7345768429329489
sI2348
F14.534118998599084
sI2349
F1.4422316951116159
sI2350
F15.511887830446028
sI2351
F2.768921625630838
sI2352
F5.6485548703529114
sI2353
F-6.4448106099337119
sI2354
F11.871755337530294
sI2355
F-0.68618734679737992
sI2356
F8.3709944303606925
sI2357
F7.5381171691090154
sI2358
F0.01301052681018533
sI2359
F0.68295735262287272
sI2360
F3.1921513565969839
sI2361
F3.8080468767050393
sI2362
F4.6631049686227168
sI2363
F1.0827302428987089
sI2364
F-4.9771775312562667
sI2365
F5.4651582415099957
sI2366
F8.8807512677786367
sI2367
F7.3783172657712965
sI2368
F3.5691133188191895
sI2369
F2.483558947031371
sI2370
F-1.0921446256648863
sI2371
F8.0329585755063029
sI2372
F2.259803899328932
sI2373
F5.5380201515761165
sI2374
F7.2506239256285978
sI2375
F7.0566927987880765
sI2376
F-3.6085823219869018
sI2377
F2.7122259982060637
sI2378
F36.105216142382289
sI2379
F18.546307447318796
sI2380
F-7.8416015762414855
sI2381
F8.2895684654073669
sI2382
F-1.8636027414703698
sI2383
F2.0759508720018172
sI2384
F-4.038746788605982
sI2385
F9.2830265069605229
sI2386
F-4.596016192362236
sI2387
F15.604416499413411
sI2388
F1.8982262456118995
sI2389
F10.275785593330035
sI2390
F1.4378835231921565
sI2391
F3.2891153804032349
sI2392
F4.7743138569413199
sI2393
F-5.1995718128980766
sI2394
F12.792035052770613
sI2395
F5.9884299145196653
sI2396
F-4.399799880877767
sI2397
F1.212588994047118
sI2398
F3.5471993840680991
sI2399
F2.8233820338250917
sI2400
F18.726765062849726
sI2401
F1.7566385075298814
sI2402
F16.048653108627303
sI2403
F6.7895821450420755
sI2404
F0.009883909560446158
sI2405
F6.4122832291907317
sI2406
F0.89732150569158797
sI2407
F9.2684676059153865
sI2408
F35.548977866943112
sI2409
F7.2189588923357277
sI2410
F-5.1025272622275075
sI2411
F2.8823525270306201
sI2412
F7.1253664828381247
sI2413
F-1.4220038685952754
sI2414
F2.4687093199994345
sI2415
F11.8405613424287
sI2416
F2.1518494598533593
sI2417
F6.5235994711692227
sI2418
F-2.726165084059164
sI2419
F3.7683270145069669
sI2420
F3.4433083746540252
sI2421
F13.979410849155517
sI2422
F-1.3519331095469971
sI2423
F5.959375553810883
sI2424
F-4.6402960639294237
sI2425
F13.189284310788082
sI2426
F-1.8227117117648346
sI2427
F15.148135393796569
sI2428
F9.2178266012057684
sI2429
F-5.4214023247136236
sI2430
F4.2547032052389087
sI2431
F-6.6377976491336694
sI2432
F10.095361227142201
sI2433
F-0.0046837118793064758
sI2434
F7.4670340415257606
sI2435
F2.2448995464328108
sI2436
F3.0626837875456436
sI2437
F20.887167604964148
sI2438
F3.5688705113756578
sI2439
F31.039456623232738
sI2440
F5.0528928966975082
sI2441
F6.9482318055911518
sI2442
F5.1734065190381067
sI2443
F10.768075641415281
sI2444
F-3.147286153942054
sI2445
F1.8330757745720971
sI2446
F2.9851727333969755
sI2447
F11.219223949559797
sI2448
F1.2376946117303009
sI2449
F35.54898540868431
sI2450
F3.8635131096401096
sI2451
F0.93828009858175543
sI2452
F-0.39055607251967295
sI2453
F3.5313961616075087
sI2454
F1.7926684848643992
sI2455
F14.348207503274459
sI2456
F11.450134689901214
sI2457
F11.452469489755098
sI2458
F-1.1289576081853554
sI2459
F6.9560815832728764
sI2460
F0.12008351935020123
sI2461
F2.2405494357719675
sI2462
F5.94485824349744
sI2463
F-2.6854654904552882
sI2464
F12.216050781949106
sI2465
F6.2185856998783908
sI2466
F2.5280075701062832
sI2467
F-2.4704980549799016
sI2468
F4.3786682687416176
sI2469
F0.95498905645903509
sI2470
F-0.85155472808687582
sI2471
F9.0478305855380814
sI2472
F-0.19035669827955543
sI2473
F14.673679052405502
sI2474
F13.866006463362128
sI2475
F2.3525142110935455
sI2476
F1.1645150516217337
sI2477
F9.5515034928013414
sI2478
F2.2772833004168573
sI2479
F3.6064608265202009
sI2480
F6.8023718195176643
sI2481
F-1.164804687789696
sI2482
F-1.7661043177363618
sI2483
F6.3086498205346508
sI2484
F2.5972278865802849
sI2485
F2.7884369670625881
sI2486
F5.8139731320531052
sI2487
F2.0964943899380168
sI2488
F1.614378783117262
sI2489
F4.4347840219297954
sI2490
F1.8474328041820858
sI2491
F14.224570034205687
sI2492
F1.0828730612794508
sI2493
F-0.60252498000147947
sI2494
F9.2868373612914255
sI2495
F6.7831501603937099
sI2496
F4.521270227131315
sI2497
F7.5009341967634517
sI2498
F8.445519487192362
sI2499
F-3.7517656011692644
sI2500
F-5.102527265375131
sI2501
F8.5527320368941773
sI2502
F11.281996528247152
sI2503
F11.103875092572833
sI2504
F6.3853919730871445
sI2505
F2.4792259839470225
sI2506
F7.6110761587900475
sI2507
F5.0769321491549633
sI2508
F1.4153755217873627
sI2509
F12.485157035284178
sI2510
F2.5587617747604687
sI2511
F3.9466618729590115
sI2512
F-2.6082683021249822
sI2513
F2.3645520926437453
sI2514
F4.7334358580750333
sI2515
F7.7100248725188871
sI2516
F-2.5168255385439915
sI2517
F8.7058369580070867
sI2518
F11.975922648435438
sI2519
F1.820421337981196
sI2520
F0.29298427719581488
sI2521
F-2.6767004701788037
sI2522
F1.1376459938236427
sI2523
F24.564500465614497
sI2524
F7.2547797629190711
sI2525
F9.5853826709841634
sI2526
F3.1392790618155693
sI2527
F7.0863995688600161
sI2528
F13.31772359731206
sI2529
F-2.8673230103171203
sI2530
F-0.90896857633120065
sI2531
F15.402092633885516
sI2532
F8.3640041769329336
sI2533
F12.688718366390255
sI2534
F-4.3636814819886816
sI2535
F-0.60125635845791692
sI2536
F7.7893577025527057
sI2537
F5.3479661917924322
sI2538
F3.8121328772598631
sI2539
F1.75927584047668
sI2540
F-0.029025475418897995
sI2541
F11.811514422162102
sI2542
F11.978576708739093
sI2543
F18.027667474716662
sI2544
F1.497135831909068
sI2545
F12.010781891927513
sI2546
F12.787506728680416
sI2547
F4.3216248239300343
sI2548
F13.31772359731205
sI2549
F-1.0274616826310452
sI2550
F-0.93286002705048798
sI2551
F4.487785312696551
sI2552
F-6.2668743637088928
sI2553
F-0.16702207778858202
sI2554
F-2.5353702769945765
sI2555
F8.4782538886882453
sI2556
F3.3580745960738563
sI2557
F5.6034817637060019
sI2558
F1.2196499194384485
sI2559
F-4.489724341381903
sI2560
F1.1355424238236305
sI2561
F5.2736948159157517
sI2562
F20.248533575412964
sI2563
F-0.39360405974048812
sI2564
F15.706149115099635
sI2565
F30.001563431952285
sI2566
F-0.94364418211320333
sI2567
F-2.4452779929127519
sI2568
F5.5817041364903703
sI2569
F1.2170921512186619
sI2570
F2.7106263656441669
sI2571
F-3.7710923356042976
sI2572
F-1.959305251733132
sI2573
F4.4760458513926489
sI2574
F4.7296828438794609
sI2575
F5.6813562621354619
sI2576
F18.807725237238461
sI2577
F7.5803678870975508
sI2578
F4.9256745969348676
sI2579
F3.0886089479846919
sI2580
F4.9226103059011805
sI2581
F6.0843417069619905
sI2582
F4.5288381141601111
sI2583
F6.5621627753081357
sI2584
F13.093961765452924
sI2585
F6.8343684551277777
sI2586
F17.68326101645609
sI2587
F0.58681118253861797
sI2588
F2.2304714228250155
sI2589
F9.8593342898230194
sI2590
F7.3563213044822291
sI2591
F7.7718827341322445
sI2592
F12.740607891066269
sI2593
F3.1849953550906589
sI2594
F7.0081527676658935
sI2595
F1.6836487484966343
sI2596
F14.32845852877681
sI2597
F4.2413891965022579
sI2598
F11.285366049585834
sI2599
F3.7248403334132312
sI2600
F35.54898716642294
sI2601
F6.0505645816200522
sI2602
F3.9260526824127933
sI2603
F1.9859097000312398
sI2604
F9.7567355017974933
sI2605
F9.1228830683608049
sI2606
F15.332558177202534
sI2607
F-3.5942806256994175
sI2608
F-2.4663231732795183
sI2609
F3.3792891951673285
sI2610
F10.679410468891509
sI2611
F17.510369465281066
sI2612
F17.885003726789712
sI2613
F0.49508438562562312
sI2614
F35.548987166422968
sI2615
F13.152635496729935
sI2616
F10.708065051235289
sI2617
F5.0081138135529368
sI2618
F32.373503603500616
sI2619
F9.9816537740836448
sI2620
F7.3388667114215167
sI2621
F-1.8450727090010617
sI2622
F-0.64529350445524347
sI2623
F-0.88112747516161016
sI2624
F6.8797939401972856
sI2625
F1.3523879991233136
sI2626
F9.9310278781437784
sI2627
F-3.7454406793844961
sI2628
F-1.8681925821628715
sI2629
F2.9687507407274798
sI2630
F6.3514688168371976
sI2631
F11.902283712578912
sI2632
F-0.391846085775301
sI2633
F12.511088516285863
sI2634
F4.7480142693738445
sI2635
F-2.8015389236270138
sI2636
F9.3169460237204795
sI2637
F3.9571053340919207
sI2638
F14.010207535020779
sI2639
F-3.3986158368937311
sI2640
F11.638529842733853
sI2641
F4.1162515296826854
sI2642
F-1.1784260294268523
sI2643
F-2.3237342202856497
sI2644
F18.694320850867463
sI2645
F6.5638480666467203
sI2646
F1.2544840090039944
sI2647
F2.7576439377446436
sI2648
F7.9424450637820954
sI2649
F-0.88470671836450543
sI2650
F-1.8838890501828323
sI2651
F8.3868852680065231
sI2652
F2.138489643797044
sI2653
F13.371073908392317
sI2654
F5.8036873222659588
sI2655
F17.136893594537419
sI2656
F3.23838635140807
sI2657
F2.656486109381154
sI2658
F9.7918412217198743
sI2659
F4.6042642520957493
sI2660
F-0.5071074955656667
sI2661
F1.8173481641688642
sI2662
F0.23647095540270224
sI2663
F5.7585056930757652
sI2664
F10.249168578344271
sI2665
F4.8517026410413067
sI2666
F10.994552670015901
sI2667
F21.985240009968784
sI2668
F-3.2706545270117044
sI2669
F-0.4973168045824401
sI2670
F-2.0424568987631071
sI2671
F3.8316024272833995
sI2672
F5.6629037821654959
sI2673
F-2.165021200355751
sI2674
F12.062294415559283
sI2675
F10.258060649182875
sI2676
F10.393467080115284
sI2677
F10.278376895988542
sI2678
F2.7587560989208901
sI2679
F12.210955338208052
sI2680
F7.9589421676468861
sI2681
F13.898450672961335
sI2682
F36.067884361214617
sI2683
F7.5496839868053129
sI2684
F6.7684982852244318
sI2685
F2.3692838959836209
sI2686
F9.7138956892112116
sI2687
F7.8528861736145279
sI2688
F5.1460937536417717
sI2689
F5.0640403226113717
sI2690
F4.0440815785626905
sI2691
F4.1583840254555122
sI2692
F1.6923042698156792
sI2693
F1.8184150871183107
sI2694
F3.8454510409284191
sI2695
F-0.32444281936630648
sI2696
F-1.2951446646871296
sI2697
F6.5822694660949495
sI2698
F8.3948008328952444
sI2699
F6.1137194946550251
sI2700
F3.8399766335986474
sI2701
F7.384115505650624
sI2702
F6.5304566755547047
sI2703
F7.5172397702296978
sI2704
F12.777762811986349
sI2705
F4.2734351290600001
sI2706
F8.0182720323875856
sI2707
F7.4949957148824895
sI2708
F1.7733755350155498
sI2709
F9.4852419122444029
sI2710
F15.564241922913231
sI2711
F5.8274074601840598
sI2712
F16.753120820334672
sI2713
F10.863297392416136
sI2714
F-1.5893936511875364
sI2715
F-5.7103726368457091
sI2716
F8.7614651889255502
sI2717
F8.0488681055232227
sI2718
F-1.3148025831829293
sI2719
F11.53215518262968
sI2720
F4.0930573977954889
sI2721
F8.0262487027479992
sI2722
F2.192752318163889
sI2723
F4.5265216820001877
sI2724
F13.319041756332515
sI2725
F5.736911427251993
sI2726
F2.6671594730515524
sI2727
F12.65522760655174
sI2728
F12.749307977914981
sI2729
F15.538991939716297
sI2730
F0.27407429326239702
sI2731
F-2.4171835914800859
sI2732
F11.62539348127633
sI2733
F9.4994393416442371
sI2734
F11.787452710282951
sI2735
F5.0696697644434048
sI2736
F2.9670985078053893
sI2737
F-3.0376543917404915
sI2738
F-0.62167056044998026
sI2739
F13.852827456900272
sI2740
F-2.9710374991509347
sI2741
F4.526067910317666
sI2742
F13.677639273051939
sI2743
F6.819145643986432
sI2744
F5.1572182040663606
sI2745
F1.4731251425883802
sI2746
F8.2921929968246921
sI2747
F10.545747428907324
sI2748
F6.0946788968533516
sI2749
F10.637647810302873
sI2750
F13.334471365375743
sI2751
F16.352526584698289
sI2752
F0.16603661948344151
sI2753
F3.0478078929449577
sI2754
F3.7561457456172986
sI2755
F7.5853140572031634
sI2756
F0.71135048859556349
sI2757
F32.978073225177333
sI2758
F9.7681099219316092
sI2759
F0.7634247989484173
sI2760
F4.9028235678840399
sI2761
F4.7364616301157882
sI2762
F5.9856182785330336
sI2763
F36.072797746368344
sI2764
F9.9827209676279125
sI2765
F2.8273306298185337
sI2766
F9.4179450337240915
sI2767
F-1.7540881016723457
sI2768
F4.4787836256331195
sI2769
F9.5341558520276237
sI2770
F3.0548151212062211
sI2771
F11.177556919079571
sI2772
F1.2539743468449356
sI2773
F1.971035433037964
sI2774
F8.5759183886050945
sI2775
F8.9417655094570634
sI2776
F15.07701130046042
sI2777
F-0.76120377352739343
sI2778
F11.894962473922472
sI2779
F1.9929532833519494
sI2780
F14.836347966074982
sI2781
F-2.0534262810354931
sI2782
F17.587166225540912
sI2783
F22.938396850961471
sI2784
F6.8343684467980754
sI2785
F13.728544247642816
sI2786
F0.57110181652913639
sI2787
F-4.5457647166250892
sI2788
F2.2705482242695672
sI2789
F3.2275983022135004
sI2790
F1.8884970460757762
sI2791
F15.021221831503638
sI2792
F4.7438882994391625
sI2793
F5.1337110117727649
sI2794
F0.90379947575166775
sI2795
F-3.534523178523965
sI2796
F-0.38328049039228418
sI2797
F2.2219569477511865
sI2798
F-2.1792004199476498
sI2799
F0.39381968004669865
sI2800
F18.807725233326575
sI2801
F3.2249261784490564
sI2802
F8.1520542168941645
sI2803
F22.022603550737024
sI2804
F20.858953668619499
sI2805
F-2.8742366349421125
sI2806
F10.216548325636509
sI2807
F-2.0542592056500886
sI2808
F3.9864922518298744
sI2809
F6.3380364422077413
sI2810
F2.4082392783409352
sI2811
F13.388587655398785
sI2812
F13.43787964817318
sI2813
F9.9724767383066215
sI2814
F12.058444738379466
sI2815
F10.370941772522722
sI2816
F4.4971740283481161
sI2817
F4.2582618730226232
sI2818
F-5.3382937671031385
sI2819
F23.374624460602732
sI2820
F6.2932634433114956
sI2821
F7.2897620837159662
sI2822
F8.056860890014546
sI2823
F8.6226707762287838
sI2824
F3.4793735960121825
sI2825
F-3.865898809469352
sI2826
F-0.064737328271323502
sI2827
F2.2641402227331495
sI2828
F-0.62867739622861674
sI2829
F2.68415218107297
sI2830
F2.3570568207885625
sI2831
F13.81270127944426
sI2832
F3.9321951174300489
sI2833
F6.2704202721050324
sI2834
F8.1332430865276031
sI2835
F8.7276477383710169
sI2836
F5.0930984524921721
sI2837
F20.296344401240841
sI2838
F2.9988283155425033
sI2839
F-0.13553779424226947
sI2840
F5.1810225151493743
sI2841
F1.7194615108265046
sI2842
F14.648841536473915
sI2843
F3.5326442063374106
sI2844
F-1.3513474453631438
sI2845
F7.2857384894733794
sI2846
F5.4100000693683912
sI2847
F5.5204614010048303
sI2848
F3.4992686944265348
sI2849
F0.43187549642469264
sI2850
F4.7078347935254383
sI2851
F-0.30126654615551041
sI2852
F13.454057920281974
sI2853
F-3.6666598483121784
sI2854
F1.8474327965773167
sI2855
F8.7626078024958893
sI2856
F5.1930284237740212
sI2857
F0.024818327178603435
sI2858
F0.60767778379367821
sI2859
F1.3664049721228526
sI2860
F13.519995528628199
sI2861
F3.5846661535861495
sI2862
F1.4098977771311336
sI2863
F8.2363179488910205
sI2864
F5.4741622945985284
sI2865
F1.9132161837441179
sI2866
F3.723498515689883
sI2867
F15.38447046148908
sI2868
F5.4136805228065574
sI2869
F5.2665695426684414
sI2870
F36.185587938777182
sI2871
F5.0124939243807836
sI2872
F-1.5846617610280567
sI2873
F11.294873286907208
sI2874
F-0.88444274688700553
sI2875
F0.81084328926717841
sI2876
F14.873253817354419
sI2877
F6.1221678940594622
sI2878
F2.8263575900394646
sI2879
F-0.92903198980892676
sI2880
F16.089649275891531
sI2881
F1.7874971366112491
sI2882
F3.2260230454223269
sI2883
F13.75267024532301
sI2884
F4.3764450422330023
sI2885
F9.6955717797763477
sI2886
F15.107351263542625
sI2887
F32.373517435526743
sI2888
F5.9001218091268521
sI2889
F15.302494381123127
sI2890
F1.2847746148943777
sI2891
F10.251315485362358
sI2892
F36.067884361214631
sI2893
F-99.399999999998627
sI2894
F9.4157782625273523
sI2895
F13.109893703468988
sI2896
F3.4472551613155358
sI2897
F7.6557587974008197
sI2898
F1.1465815022110559
sI2899
F7.2857818782727923
sI2900
F-2.4667349580483364
sI2901
F-1.351933119063262
sI2902
F-1.999622716456195
sI2903
F-2.777897687737712
sI2904
F29.770422229310778
sI2905
F8.7301507445712794
sI2906
F-3.5401295540197784
sI2907
F13.542467544142047
sI2908
F10.115825238995971
sI2909
F3.6425101919997847
sI2910
F12.45107615650565
sI2911
F9.3779327526777188
sI2912
F17.679984552439315
sI2913
F19.626913416948874
sI2914
F4.9451510810505104
sI2915
F9.2758763704230276
sI2916
F9.0328185452334182
sI2917
F-2.3536550810063823
sI2918
F9.3990124232440504
sI2919
F2.8611402360909644
sI2920
F14.519904680580348
sI2921
F-1.4386038227132154
sI2922
F18.024890023067297
sI2923
F18.431968525990055
sI2924
F13.17102834980712
sI2925
F-3.6644486257321458
sI2926
F2.9948033497451378
sI2927
F2.5676363382202707
sI2928
F3.2315528392809796
sI2929
F10.708065036838025
sI2930
F6.0920486355051366
sI2931
F11.524212519136782
sI2932
F13.700351485267161
sI2933
F-0.02902549231823065
sI2934
F-0.3951487021381821
sI2935
F11.495714935391726
sI2936
F4.1713655765097943
sI2937
F3.2530940688536134
sI2938
F2.5833470911046996
sI2939
F13.952092148992634
sI2940
F8.4350078339591334
sI2941
F1.0554387409185524
sI2942
F9.1326939818166597
sI2943
F31.039552278778785
sI2944
F36.157773953640174
sI2945
F12.806148667136684
sI2946
F11.321943337947642
sI2947
F2.3114091799087708
sI2948
F15.740156744159407
sI2949
F8.0488455108612342
sI2950
F9.4466859808275991
sI2951
F6.0899934193225462
sI2952
F0.84071778528096985
sI2953
F35.548997403264714
sI2954
F-3.8658988120322721
sI2955
F3.4740362224650849
sI2956
F10.586310403031474
sI2957
F-2.8131580401458498
sI2958
F-3.3234064047378249
sI2959
F5.5692863694022989
sI2960
F-1.3805218002160276
sI2961
F-3.2733290300910123
sI2962
F14.648841533774917
sI2963
F2.1983746149078414
sI2964
F3.1060677685897531
sI2965
F7.8930349232662254
sI2966
F4.08173673528926
sI2967
F13.019886192910748
sI2968
F2.1174108321139764
sI2969
F1.727307476738255
sI2970
F0.50852846757875336
sI2971
F6.6049019176663109
sI2972
F8.5775041647540125
sI2973
F6.7265681356248113
sI2974
F11.142008096925409
sI2975
F7.1592361007742786
sI2976
F11.228592312890163
sI2977
F-4.6124749445903266
sI2978
F-1.2390016613812884
sI2979
F1.0363064407747176
sI2980
F-1.3000519114282423
sI2981
F-2.868628929732663
sI2982
F0.025182334408720641
sI2983
F5.8646283465049436
sI2984
F13.41052660978078
sI2985
F16.030638626987059
sI2986
F7.5900088627713158
sI2987
F2.2953511882986932
sI2988
F4.7509559036205813
sI2989
F-1.5893936580722057
sI2990
F-0.51758149437703582
sI2991
F1.4824187982449404
sI2992
F14.640447204538349
sI2993
F-1.2412727687472935
sI2994
F11.333455687329108
sI2995
F3.2891153712885126
sI2996
F2.6040777782371611
sI2997
F10.373814759008518
sI2998
F1.4934010464174909
sI2999
F-0.69845614676836743
sI3000
F5.8657233510968014
sI3001
F4.155894862827811
sI3002
F3.6652678652594499
sI3003
F35.548997403264735
sI3004
F-2.4480205344391024
sI3005
F7.7374423225166291
sI3006
F-99.399999999998627
sI3007
F4.7966546232095721
sI3008
F0.38640663069105874
sI3009
F-1.3806004494313631
sI3010
F0.65261815953460633
sI3011
F0.68948007160932945
sI3012
F16.126271118962414
sI3013
F2.0396682280252447
sI3014
F5.9232868923634694
sI3015
F-1.444186251330513
sI3016
F13.075545596735278
sI3017
F1.7837490909493114
sI3018
F3.851391295928372
sI3019
F13.07362176190045
sI3020
F-3.2160180441521069
sI3021
F9.6536667776066416
sI3022
F-2.5168255486937929
sI3023
F0.87496336517327222
sI3024
F11.067719644319158
sI3025
F13.631077347137657
sI3026
F5.2845841995311087
sI3027
F8.6776230379789627
sI3028
F3.6552250527301271
sI3029
F9.1674865536818047
sI3030
F4.185009038704643
sI3031
F2.4063557829908229
sI3032
F4.1389239026565274
sI3033
F0.079459511552559592
sI3034
F13.072869688481505
sI3035
F-5.9986870338860738
sI3036
F3.0018205688083093
sI3037
F1.7175322324175391
sI3038
F3.3293973350108086
sI3039
F5.9999029453185768
sI3040
F4.1073519163266941
sI3041
F23.522637883941908
sI3042
F4.9675955560119753
sI3043
F2.7757825195167167
sI3044
F2.6442466505068483
sI3045
F9.4979751823347875
sI3046
F14.014966997070612
sI3047
F7.2255352963830477
sI3048
F6.4361475941029713
sI3049
F3.2354852794074613
sI3050
F-2.162089997816695
sI3051
F0.23963759107065963
sI3052
F2.1482895103932993
sI3053
F6.0182464466861321
sI3054
F-3.1472861653395543
sI3055
F2.4511182207473858
sI3056
F0.91189090538663964
sI3057
F5.8646538655856659
sI3058
F9.6738413643536436
sI3059
F4.3047717006624202
sI3060
F30.54717382517935
sI3061
F-0.029025496417080743
sI3062
F13.517387073903301
sI3063
F8.0181661737306218
sI3064
F-2.1377543347340029
sI3065
F7.6685178519268185
sI3066
F1.9680103745774036
sI3067
F13.511863534059259
sI3068
F-2.0975228106089849
sI3069
F1.5654583330965919
sI3070
F4.3539171313294096
sI3071
F8.9367768798915943
sI3072
F1.7888063381016099
sI3073
F11.200689675840289
sI3074
F14.450017983314055
sI3075
F5.1342566554826501
sI3076
F-1.4864548443023133
sI3077
F1.8207643396009192
sI3078
F0.9504839185513857
sI3079
F-1.5176618781424716
sI3080
F5.9999029416474174
sI3081
F11.393480031468108
sI3082
F7.2857818674826715
sI3083
F2.6059111629807918
sI3084
F9.1113612860792639
sI3085
F28.312399023929107
sI3086
F12.548933513201492
sI3087
F7.1131095785833498
sI3088
F15.290058319401309
sI3089
F0.046022026623142143
sI3090
F2.1363648210756523
sI3091
F2.595504475020495
sI3092
F-1.1518322641236107
sI3093
F16.030638623794324
sI3094
F4.2433744501458506
sI3095
F6.636365944297836
sI3096
F15.074149575396738
sI3097
F3.9763705441321067
sI3098
F2.3241975632700278
sI3099
F4.9702708378021363
sI3100
F2.5494301143839149
sI3101
F11.469936323047959
sI3102
F7.1710437511387424
sI3103
F-3.6817322358569866
sI3104
F0.093840279590630349
sI3105
F13.763773956635282
sI3106
F0.38640662901442768
sI3107
F-0.16065438551269828
sI3108
F7.1826077672668607
sI3109
F9.0134597560574701
sI3110
F9.216008056102913
sI3111
F1.3586816512208837
sI3112
F3.5664870656193202
sI3113
F6.813104015147899
sI3114
F13.628715783561306
sI3115
F4.8947044747288144
sI3116
F8.448505948700312
sI3117
F-5.0927293924834478
sI3118
F1.9013415490246457
sI3119
F4.7558803414472015
sI3120
F1.4538468006923888
sI3121
F7.9388438786548114
sI3122
F11.932167694831675
sI3123
F30.547173825179634
sI3124
F8.4575783996959508
sI3125
F12.615527662508654
sI3126
F-1.1220664341675608
sI3127
F17.19073538273274
sI3128
F13.614388740858759
sI3129
F2.3276288841043131
sI3130
F2.0470296253640692
sI3131
F15.911365977000354
sI3132
F2.300723512582032
sI3133
F10.095361216913711
sI3134
F6.3538476116160467
sI3135
F3.097935195263573
sI3136
F-1.2144584085783801
sI3137
F9.847572245371472
sI3138
F10.501918100165158
sI3139
F-0.10277898275840425
sI3140
F11.021777832835786
sI3141
F1.9650182683048647
sI3142
F7.97771891416809
sI3143
F14.148005014872284
sI3144
F1.8893311110907076
sI3145
F-3.9722237844270452
sI3146
F5.2838638946337975
sI3147
F0.87420263312993285
sI3148
F13.404232223548929
sI3149
F3.5547644813219379
sI3150
F-2.9704834321415183
sI3151
F-2.4653369126980214
sI3152
F6.9479833923482648
sI3153
F9.9702441039744425
sI3154
F-0.80334432130038302
sI3155
F7.4160690936718447
sI3156
F10.418541721402757
sI3157
F-0.71557472583318182
sI3158
F5.1887540956644091
sI3159
F3.5571980904322
sI3160
F10.831203612134546
sI3161
F4.1018489298593401
sI3162
F36.072802698681912
sI3163
F2.6367071183187729
sI3164
F0.17171989031656221
sI3165
F20.511410875535386
sI3166
F12.664659198569083
sI3167
F-1.8227117410872227
sI3168
F6.0035309966110937
sI3169
F-0.92341105538243606
sI3170
F12.965830666978794
sI3171
F-2.7525362433928171
sI3172
F2.1737704305290855
sI3173
F12.124801434864748
sI3174
F0.48773907440080855
sI3175
F6.0991371005192061
sI3176
F9.640571686395619
sI3177
F9.6154004456612849
sI3178
F0.51965242965948166
sI3179
F13.726120126162272
sI3180
F8.9197314665317755
sI3181
F-2.4506996335684037
sI3182
F7.02172970852458
sI3183
F5.4342903545826617
sI3184
F3.9316408621964145
sI3185
F1.3523879847520466
sI3186
F3.4656086792223091
sI3187
F4.8917444117586788
sI3188
F2.2672371376485252
sI3189
F0.72967060862908195
sI3190
F1.5333846959423285
sI3191
F0.61875351897166042
sI3192
F3.04271417860038
sI3193
F13.895127560946237
sI3194
F8.1076298918137883
sI3195
F5.3528730065592027
sI3196
F18.779511304546283
sI3197
F9.7781646530093553
sI3198
F-1.8764706285222881
sI3199
F4.9410575660808504
sI3200
F1.104389380386344
sI3201
F-2.0534262915136519
sI3202
F-2.0534262918061237
sI3203
F3.2648712822839272
sI3204
F3.9734424199945533
sI3205
F1.0296254976358252
sI3206
F10.32116256536688
sI3207
F-3.2733290334579412
sI3208
F3.4865488741932973
sI3209
F1.611936378410074
sI3210
F2.9602072351984923
sI3211
F4.8067524806548141
sI3212
F-2.5508433781096911
sI3213
F4.6785355105033135
sI3214
F-0.29940894611821339
sI3215
F2.2528597582413363
sI3216
F8.3343428570104656
sI3217
F20.883004160658533
sI3218
F20.768843847936836
sI3219
F1.3103598460663153
sI3220
F2.0852469791535104
sI3221
F11.353004526218024
sI3222
F-0.80334432442573989
sI3223
F31.039592348044604
sI3224
F32.978095234562765
sI3225
F-2.5255979552388226
sI3226
F21.727807016929866
sI3227
F1.4824187865044935
sI3228
F7.5689184460154255
sI3229
F1.2915539414065877
sI3230
F20.511410873980623
sI3231
F0.36776038461130556
sI3232
F13.841056339922273
sI3233
F1.5204029558512584
sI3234
F0.079818818959063065
sI3235
F12.079692906109171
sI3236
F1.3885091597808632
sI3237
F6.6348510796035436
sI3238
F3.5782378960556596
sI3239
F5.5149582663341539
sI3240
F13.112201165241901
sI3241
F7.1826077578947674
sI3242
F6.1385568854191845
sI3243
F17.969516363528282
sI3244
F36.067943362740898
sI3245
F5.0850570643618731
sI3246
F-2.5085854712398183
sI3247
F3.0052110327310393
sI3248
F1.3267132930675458
sI3249
F13.959654034604352
sI3250
F2.4925417641963623
sI3251
F12.243913255185214
sI3252
F2.8755948922839432
sI3253
F2.9340587601387211
sI3254
F5.5995078334626811
sI3255
F1.4026665721710774
sI3256
F10.000140541389563
sI3257
F1.9140890610097492
sI3258
F10.026198344257043
sI3259
F-1.6366373018616864
sI3260
F5.1553628070855435
sI3261
F8.2160612744006762
sI3262
F21.799149691584976
sI3263
F6.4219175764416816
sI3264
F14.768759430613329
sI3265
F8.2384639963105357
sI3266
F9.7915660702712248
sI3267
F-7.2763342790435299
sI3268
F1.9421003499443634
sI3269
F24.532056273066704
sI3270
F-0.39598067554998206
sI3271
F4.1407611822184247
sI3272
F36.072826471202909
sI3273
F-1.2503396405525518
sI3274
F15.154987102442602
sI3275
F3.839607566795916
sI3276
F6.7303917578512342
sI3277
F5.242358681262937
sI3278
F7.7718827214575636
sI3279
F11.34262962650854
sI3280
F6.5627263369652722
sI3281
F0.004940153448131368
sI3282
F2.9282818213945139
sI3283
F1.2251676143118571
sI3284
F12.27565932781404
sI3285
F36.072826471202951
sI3286
F0.88779492657715053
sI3287
F8.1768678484911241
sI3288
F12.008142424512434
sI3289
F-4.15011135629282
sI3290
F2.7859749851804976
sI3291
F14.408713384656698
sI3292
F1.3952732021544749
sI3293
F0.61418715199678431
sI3294
F11.115530452412509
sI3295
F2.2462092842947365
sI3296
F-0.81661089837585388
sI3297
F15.797413170547239
sI3298
F7.9949939761308526
sI3299
F2.2612560641743471
sI3300
F1.5697475929850115
sI3301
F13.009830621010599
sI3302
F2.8959175100917003
sI3303
F14.257753183237069
sI3304
F-1.9550824197781989
sI3305
F20.883004159489037
sI3306
F3.4353305756613084
sI3307
F-0.42260554874484574
sI3308
F5.8190422907459274
sI3309
F1.0029315786441719
sI3310
F-1.2144584210856915
sI3311
F3.3743632491386757
sI3312
F5.5204809958235641
sI3313
F3.7023829668106689
sI3314
F-1.5893936626470617
sI3315
F11.988624091424251
sI3316
F-0.42955601040820968
sI3317
F2.371833377048441
sI3318
F13.26831496607719
sI3319
F-3.2698216194976761
sI3320
F11.9307658749197
sI3321
F6.3241700727026302
sI3322
F9.3200225349433872
sI3323
F3.0253339444366842
sI3324
F2.2456153403125212
sI3325
F1.3731363361020026
sI3326
F-2.801057091514835
sI3327
F3.0664220755569156
sI3328
F0.094538854580870024
sI3329
F13.558663558789945
sI3330
F18.689401484941818
sI3331
F5.8299145477233854
sI3332
F5.1596419272728511
sI3333
F-1.6813919683821195
sI3334
F15.045272321235156
sI3335
F10.289639247862862
sI3336
F1.229405829412183
sI3337
F20.965775452318336
sI3338
F11.828138154233997
sI3339
F3.0638281065796464
sI3340
F2.6009186561459652
sI3341
F3.0663135787776201
sI3342
F-0.14516411574713844
sI3343
F1.5033354980550095
sI3344
F-0.55373918467634997
sI3345
F19.101399372758952
sI3346
F17.000506433901997
sI3347
F-2.2842399769794035
sI3348
F13.228164683597354
sI3349
F8.3673431409728956
sI3350
F3.1312969345871231
sI3351
F0.36776038401122568
sI3352
F17.008375054615204
sI3353
F4.0048953747816451
sI3354
F7.9236592893097315
sI3355
F-1.4824264750359304
sI3356
F20.768843847936878
sI3357
F-1.7864572851243445
sI3358
F-2.9605690347453377
sI3359
F4.688440833435858
sI3360
F2.983616601442852
sI3361
F0.1330689511078598
sI3362
F3.0414280980370325
sI3363
F16.209365303144036
sI3364
F3.9497279310610089
sI3365
F1.9921845703209882
sI3366
F-2.6854655128521152
sI3367
F2.8189251832648727
sI3368
F36.105306482838706
sI3369
F9.2020878177660634
sI3370
F2.251020093938612
sI3371
F19.472992660537795
sI3372
F-3.4447006854686202
sI3373
F4.7348274478589909
sI3374
F2.5878882023867966
sI3375
F21.03730805067007
sI3376
F5.2602417755829167
sI3377
F-1.1052900016266567
sI3378
F-1.0219393227969225
sI3379
F0.33043821992952149
sI3380
F32.373567565535232
sI3381
F-3.0230857417334014
sI3382
F7.7121245158535867
sI3383
F3.4398640817492749
sI3384
F16.147507434251491
sI3385
F-3.8310630224906284
sI3386
F2.3816181475681799
sI3387
F31.039592348044774
sI3388
F-4.0025413767589066
sI3389
F0.0098838883227868879
sI3390
F-4.1769643592686414
sI3391
F-2.746935308210956
sI3392
F32.978106088480374
sI3393
F10.701435825346014
sI3394
F8.8896791743760151
sI3395
F-3.1201302944168869
sI3396
F8.1300061178109733
sI3397
F2.918484997196356
sI3398
F6.9591154495032077
sI3399
F4.200758840271364
sI3400
F4.6100055085802163
sI3401
F5.5840621590493686
sI3402
F6.9801768415473431
sI3403
F-1.6930349254496662
sI3404
F9.4264874045547558
sI3405
F7.8898704669144539
sI3406
F11.571111233018003
sI3407
F5.3990772606881565
sI3408
F0.24053906863745339
sI3409
F0.54024316073503342
sI3410
F1.9425525300821702
sI3411
F8.9721268234179252
sI3412
F-4.8662469562236641
sI3413
F16.361392520351291
sI3414
F2.3268567417914845
sI3415
F8.64513732587573
sI3416
F23.522637871483017
sI3417
F-4.0489241243465068
sI3418
F11.916949876335382
sI3419
F14.214532223646454
sI3420
F0.71004257338927967
sI3421
F3.1719473762020032
sI3422
F14.43158299341188
sI3423
F2.360706426667964
sI3424
F19.648364244154777
sI3425
F15.114846062232633
sI3426
F-3.2706545437401044
sI3427
F11.767279847508215
sI3428
F3.8683667426227073
sI3429
F13.1923179767665
sI3430
F13.842942051345213
sI3431
F15.330270895386928
sI3432
F10.855535851377786
sI3433
F3.81548928783387
sI3434
F5.2174923631793382
sI3435
F-1.405070742350718
sI3436
F14.589166389667927
sI3437
F9.3189566745917816
sI3438
F0.42852468444762326
sI3439
F16.754316339679796
sI3440
F4.9463868218149756
sI3441
F-0.17967540359144918
sI3442
F2.9501455151369012
sI3443
F4.9646806918703295
sI3444
F1.2252554898379773
sI3445
F2.1467448629210164
sI3446
F18.309864657260107
sI3447
F7.6151140826415133
sI3448
F2.7811514397572843
sI3449
F0.93140756271040992
sI3450
F20.486573179432074
sI3451
F4.9085340552054753
sI3452
F14.760641644380193
sI3453
F1.1439703814219389
sI3454
F5.1668192897173846
sI3455
F5.1230769067589748
sI3456
F9.646072445109148
sI3457
F2.4034320346928597
sI3458
F18.142436675661848
sI3459
F-4.9457779590464046
sI3460
F2.6475093030886789
sI3461
F1.4507911104442437
s.