(dp1
I0
F-0.49362334187180679
sI1
F5.0578709455088466
sI2
F5.1174689802001447
sI3
F5.1733286062951027
sI4
F5.7217149794680093
sI5
F5.4373751337680218
sI6
F5.5720532411183967
sI7
F5.9514316109368695
sI8
F14.562926241988873
sI9
F4.042599795788826
sI10
F6.0352728356254755
sI11
F4.0762777147718898
sI12
F3.4705518683260665
sI13
F5.9572815903162617
sI14
F4.3646717426863306
sI15
F16.786824409438605
sI16
F1.3158047527532677
sI17
F10.137764523980746
sI18
F3.5024138764343897
sI19
F12.130741793993764
sI20
F4.344167527589776
sI21
F1.3782244448486924
sI22
F5.8641445685222138
sI23
F0.22940694022493435
sI24
F1.1087027687338686
sI25
F0.35976901776126979
sI26
F1.7616416034119053
sI27
F4.4556019563638474
sI28
F-2.3504109704560365
sI29
F11.423240921117245
sI30
F-3.1446842143344576
sI31
F0.41637206449280573
sI32
F1.5054013618104367
sI33
F6.820924337278055
sI34
F1.7511158399353288
sI35
F3.4749523354716594
sI36
F0.50908061006880612
sI37
F1.9323697259103678
sI38
F3.4367557210162483
sI39
F4.5626616404555289
sI40
F18.6558763067599
sI41
F2.110707724723297
sI42
F0.48878445389537362
sI43
F4.8995641568413451
sI44
F4.8660485181108681
sI45
F-0.30444121595875284
sI46
F3.3002612998297929
sI47
F1.6831340002751869
sI48
F1.442475394323532
sI49
F4.8928975369985963
sI50
F2.0044862530371201
sI51
F-0.18881557214933054
sI52
F0.060405641961583711
sI53
F0.58842459437730188
sI54
F6.5677135376896363
sI55
F9.9202272296454712
sI56
F0.30940538890819891
sI57
F0.99033635802576558
sI58
F-3.2273654761150699
sI59
F5.0748696174682895
sI60
F8.7674757470134104
sI61
F1.9510232053377399
sI62
F0.25380892906277808
sI63
F3.2078503113173804
sI64
F-0.3312821806468218
sI65
F1.5894881018547746
sI66
F1.2056205339878527
sI67
F2.4158497367710856
sI68
F-0.019897306219806232
sI69
F7.3958792244661895
sI70
F0.62721387022680108
sI71
F-0.055208518175157373
sI72
F0.19937479448139683
sI73
F4.2976417973545535
sI74
F3.6327192692851549
sI75
F1.2797800920398954
sI76
F0.88356978237289763
sI77
F6.0509840709040805
sI78
F-3.2064408400021245
sI79
F13.362038244556501
sI80
F2.5700525908374825
sI81
F-0.061092608121532166
sI82
F1.8989051605127978
sI83
F0.13590466801232193
sI84
F2.5313637642507043
sI85
F1.4366389978120369
sI86
F0.54561394380351036
sI87
F-0.038138739586873527
sI88
F0.40785835309872365
sI89
F4.1781005857274103
sI90
F3.8325950038160492
sI91
F-0.20373799055712905
sI92
F2.2383768580089223
sI93
F5.5095129920864858
sI94
F-0.21632365134049802
sI95
F8.0162575709592545
sI96
F2.4471159443446044
sI97
F6.5669735040571577
sI98
F2.5381358388164399
sI99
F1.7482521030227911
sI100
F12.708831788257253
sI101
F-3.3708289664262647
sI102
F11.055798084248014
sI103
F1.531452118621595
sI104
F-0.50042695713225438
sI105
F0.11413632963107023
sI106
F4.110781808787717
sI107
F0.056735414325937761
sI108
F-0.95455083505891114
sI109
F0.065430016579367312
sI110
F15.463901519366472
sI111
F1.3300290724736978
sI112
F0.99520361275862168
sI113
F0.31954158954902478
sI114
F1.2089266729308745
sI115
F0.27264272338195905
sI116
F11.441046653726383
sI117
F0.039903671129244422
sI118
F0.89087782579025099
sI119
F2.4179029620763677
sI120
F7.0994815223676619
sI121
F1.8382402958267923
sI122
F0.47939719230995959
sI123
F-1.7991861001996279
sI124
F9.1936283264318419
sI125
F0.8423884447033716
sI126
F1.7756553569308302
sI127
F-1.4881305564743057
sI128
F2.1306962191771754
sI129
F0.16670818532783294
sI130
F2.4394015907218973
sI131
F0.38638718073363076
sI132
F1.1824026096082472
sI133
F1.2440307507496486
sI134
F0.50644632507507303
sI135
F-1.6650403199566641
sI136
F0.28293624211913837
sI137
F-0.94514018081981099
sI138
F1.2167523195682106
sI139
F6.8415351662677226
sI140
F8.4132433889216411
sI141
F1.9624561409277312
sI142
F5.1360046350762207
sI143
F0.85352971941943601
sI144
F-2.2659812730516764
sI145
F0.70725212347965094
sI146
F0.00031596405272615868
sI147
F1.0483251148147632
sI148
F-0.43680870523429061
sI149
F1.1886433044987506
sI150
F8.0687561179453304
sI151
F1.1805981270132815
sI152
F-0.53375726404829749
sI153
F-3.396391373232329
sI154
F5.5090293945677633
sI155
F0.25058027624526602
sI156
F0.93296485107905713
sI157
F1.2227703871130693
sI158
F0.68011719148150096
sI159
F8.0850487040520349
sI160
F14.64226140719764
sI161
F0.27115487159222695
sI162
F0.41102849523651042
sI163
F-0.68849376838741883
sI164
F1.0884581371479403
sI165
F1.824567743583934
sI166
F-1.178995924294945
sI167
F-2.1217124992749072
sI168
F1.3305142925295268
sI169
F4.6136826295318487
sI170
F2.1328333963930861
sI171
F-0.37825486397120756
sI172
F0.43088677832069955
sI173
F1.3056651118525613
sI174
F-2.8437031004831583
sI175
F0.29141944610460602
sI176
F-1.7014474746644632
sI177
F7.8597585031600117
sI178
F15.007180911768398
sI179
F-0.62597495990586793
sI180
F0.36678585863718993
sI181
F-0.53288394062191191
sI182
F-1.0832800118224686
sI183
F0.61322164021895986
sI184
F-0.1574327788208647
sI185
F0.40092263247852333
sI186
F1.1105945856652983
sI187
F1.5509694464075663
sI188
F-0.77425771815859612
sI189
F2.4461287243106691
sI190
F0.1215263716073709
sI191
F-0.13407889191307909
sI192
F6.6668111219832884
sI193
F2.5476934593552665
sI194
F-2.2038252995382042
sI195
F-1.1842894110138564
sI196
F-1.2686738592724485
sI197
F1.6196269881328949
sI198
F1.1417858517497308
sI199
F-2.0934970571287588
sI200
F0.58487988257339829
sI201
F0.61435349105868919
sI202
F-0.84987477179773308
sI203
F0.50178916506473126
sI204
F-1.8474391700544324
sI205
F7.2856604234898121
sI206
F1.5708893873200553
sI207
F-1.4263641488458321
sI208
F-0.15161989892585304
sI209
F-0.449990329447294
sI210
F2.6028229750637717
sI211
F-1.7979141706218993
sI212
F6.651267357972535
sI213
F4.8729505992178321
sI214
F0.91192394894658246
sI215
F5.10340415524756
sI216
F-4.1255905123918541
sI217
F-0.42953025644702869
sI218
F11.488511295094357
sI219
F0.57928987050195779
sI220
F-0.94248122441966053
sI221
F0.67826946311046576
sI222
F0.93647574012949253
sI223
F9.4011097270960313
sI224
F0.59664589640831434
sI225
F0.58557011169243811
sI226
F-0.71151707970210953
sI227
F8.5959733428940179
sI228
F0.075158360857275675
sI229
F0.24942827246506116
sI230
F1.8530265141440223
sI231
F0.3246331435882901
sI232
F10.245974819470048
sI233
F13.826746182736052
sI234
F11.095371141535958
sI235
F0.89229389157830852
sI236
F9.9090172661423956
sI237
F0.46962170057990971
sI238
F3.2315786864047791
sI239
F-1.3851804836156738
sI240
F0.16959574577024394
sI241
F4.6146992180167103
sI242
F-1.8799335166158304
sI243
F6.1839957197807589
sI244
F10.249369070391596
sI245
F-2.2553749132045091
sI246
F1.1358132810782804
sI247
F-2.5441445469995143
sI248
F4.564850880509657
sI249
F1.7168038469373244
sI250
F1.1366143291807367
sI251
F0.77663329802769088
sI252
F11.214159247722057
sI253
F1.8408606907501026
sI254
F-1.1775626990750414
sI255
F0.92084746898516201
sI256
F4.2566743056352285
sI257
F5.8088611728400599
sI258
F-3.2390581791622717
sI259
F7.7233107887304779
sI260
F-1.9427821159162573
sI261
F0.54627724409337386
sI262
F1.0208723995633662
sI263
F7.6733775294083157
sI264
F-0.99913237710221559
sI265
F0.55861618139764069
sI266
F13.043577389796688
sI267
F0.58209851569895843
sI268
F13.309636067214315
sI269
F0.58617502382180486
sI270
F-1.5350574264672794
sI271
F8.9439915548463542
sI272
F-1.7597104176632374
sI273
F1.5769121234593513
sI274
F-1.5168622676514207
sI275
F-0.27754868360566576
sI276
F-2.1167938973437828
sI277
F0.22287899746244033
sI278
F-2.2372485712361811
sI279
F-3.3298929081705424
sI280
F-1.7264327719865307
sI281
F-0.13072320566157725
sI282
F0.91556404065223962
sI283
F0.06349291379515698
sI284
F-1.3054846521803976
sI285
F-0.5306905692031858
sI286
F-0.81776333590850303
sI287
F-3.1477021444066304
sI288
F1.0764985838418681
sI289
F1.2269129866417021
sI290
F4.2181154493845661
sI291
F-1.113181927348081
sI292
F0.31252301131148919
sI293
F-0.031947465319472457
sI294
F1.2534414279615769
sI295
F0.82679527838880951
sI296
F6.6688467157196065
sI297
F-1.5418442644597041
sI298
F-1.1311055522119844
sI299
F1.016720351026362
sI300
F-1.7516746215046952
sI301
F0.70823508637320742
sI302
F1.0747827288055012
sI303
F1.2520511863314878
sI304
F-1.6117477609676971
sI305
F-1.7144879438904237
sI306
F-3.5896543567797989
sI307
F-0.87742733849159915
sI308
F-1.29823538601668
sI309
F0.78692000903402715
sI310
F-1.2123946507792533
sI311
F-3.1030618227959677
sI312
F-0.39559790370203807
sI313
F5.7175197467262393
sI314
F0.74824587802657128
sI315
F-1.9439710730500828
sI316
F0.80308452952554177
sI317
F-2.007776699704614
sI318
F0.3743492524934009
sI319
F-3.8206254416057233
sI320
F6.833127290985062
sI321
F2.8334644741908805
sI322
F-1.4715435912787562
sI323
F1.0556070481813995
sI324
F-0.875374692725857
sI325
F6.8096454785615776
sI326
F20.439213744160881
sI327
F-0.80251436242724861
sI328
F-6.9917774831382413
sI329
F-1.7427743136665228
sI330
F9.4318629211072924
sI331
F0.11520866542555641
sI332
F-2.5458362443208653
sI333
F9.7318502593788345
sI334
F5.0085677701062981
sI335
F7.8777837686808656
sI336
F-2.2651086461214671
sI337
F1.9221280190836509
sI338
F-0.024487688333554303
sI339
F-2.0361530518974229
sI340
F11.553491436426704
sI341
F-2.339079675643057
sI342
F8.7712105402207019
sI343
F7.2246686350872542
sI344
F6.5149101820725406
sI345
F-3.1278816465308648
sI346
F6.323607653465106
sI347
F1.0915959728466396
sI348
F4.0596874266596208
sI349
F0.85201856223466166
sI350
F-3.6472459557136903
sI351
F12.103423533016029
sI352
F4.0999717985055453
sI353
F-1.1379591623012644
sI354
F3.980845352843839
sI355
F-0.51593095846434167
sI356
F3.07725750333202
sI357
F-1.3582185415224668
sI358
F8.8296367990359563
sI359
F-2.1337742711346799
sI360
F-1.8874319178818189
sI361
F-2.869983609490756
sI362
F12.549154149447112
sI363
F9.3244650198777599
sI364
F2.3483668106429061
sI365
F7.2719032130668761
sI366
F-1.9135195846409641
sI367
F1.0220899753906751
sI368
F-2.912005960478985
sI369
F-0.95409279966805816
sI370
F-0.012416814467471227
sI371
F8.890419391669381
sI372
F-2.5463767570058717
sI373
F0.15636302056039053
sI374
F1.0478387869325774
sI375
F-1.0865687567797702
sI376
F0.75423039788989588
sI377
F-1.4813425471150117
sI378
F-0.92156657398177888
sI379
F10.799632111940957
sI380
F15.155607322877593
sI381
F12.380585967422164
sI382
F11.786492382696212
sI383
F10.33266746668253
sI384
F-4.8084708621409735
sI385
F-3.9208848923515207
sI386
F0.096282495217245412
sI387
F-3.6523400061991813
sI388
F1.1553587848862863
sI389
F7.0974258257663365
sI390
F-1.5959456706647668
sI391
F-2.9110494451766176
sI392
F6.098208583472001
sI393
F-0.51654426993992075
sI394
F0.76772307670853035
sI395
F1.5818784675400845
sI396
F7.4200427875617274
sI397
F9.2240472749151969
sI398
F12.311557983370456
sI399
F-3.9461444363922435
sI400
F9.1165918089653459
sI401
F0.75932227502654381
sI402
F0.30543903442432274
sI403
F-3.0557906935112742
sI404
F5.769508537477023
sI405
F8.7589365305996907
sI406
F-0.68747436491776703
sI407
F0.39459886400578004
sI408
F-0.6755181190969779
sI409
F-1.885921648870001
sI410
F4.0653855263830714
sI411
F11.967522187403421
sI412
F9.9516028018954152
sI413
F10.056214395146146
sI414
F10.832052446744786
sI415
F6.9168280312228516
sI416
F0.85802374550225569
sI417
F-5.4591728686668297
sI418
F-2.8480833239601413
sI419
F10.008309805021893
sI420
F7.063435005860442
sI421
F-1.3942762348294844
sI422
F8.743129075229195
sI423
F-2.365720327245767
sI424
F-0.3884941880200552
sI425
F-0.9929271869002898
sI426
F-0.63281869344598007
sI427
F3.0276636784195015
sI428
F6.0989915577919911
sI429
F-1.1478273130466743
sI430
F4.0808551585885953
sI431
F-2.8092741468032907
sI432
F-2.0621192366277459
sI433
F-0.20560124781777311
sI434
F0.52042345340853391
sI435
F5.5784781690264698
sI436
F8.9384329810135021
sI437
F-2.7710403323482797
sI438
F-2.1291643797491213
sI439
F5.9768651266911181
sI440
F-1.833393337603022
sI441
F-0.27219603659505864
sI442
F-2.5734063911414466
sI443
F-7.0391102488569794
sI444
F28.229059962324577
sI445
F8.7536346938385456
sI446
F3.5271728054209373
sI447
F-3.8351709199626676
sI448
F17.238327873323254
sI449
F7.0808710207544978
sI450
F1.7400976769566929
sI451
F0.47051099057555845
sI452
F8.0177648349895065
sI453
F-0.092389928081096251
sI454
F-1.0025380157722514
sI455
F0.75758509755102388
sI456
F-1.4638350316942583
sI457
F1.1777302133165142
sI458
F2.91422454660679
sI459
F-1.8311450779928462
sI460
F-8.8474924414245883
sI461
F2.5870355731862662
sI462
F-1.5288725447039848
sI463
F9.1414949047040288
sI464
F3.4589739301848192
sI465
F-1.2488365695764054
sI466
F-1.222569577804455
sI467
F9.6514142512915946
sI468
F-3.4326845687840493
sI469
F-1.6145077287830185
sI470
F0.74748184476760837
sI471
F6.0255732553841828
sI472
F7.2851689783013276
sI473
F-5.4477485165040136
sI474
F13.019007547015153
sI475
F-1.9453061536393728
sI476
F-3.3264791835959562
sI477
F2.0315433477831952
sI478
F-1.6560120709516841
sI479
F-1.5490887225977454
sI480
F1.7080176344037818
sI481
F-0.22428244851055634
sI482
F-2.5754330653467257
sI483
F-2.9632778607681294
sI484
F-2.3269094898716354
sI485
F-0.99219396142896077
sI486
F3.113561277637829
sI487
F-0.14547899291728417
sI488
F-1.621024835670668
sI489
F-0.88551334881003463
sI490
F-4.3227520677968405
sI491
F-2.4893216380678114
sI492
F6.0135275206387782
sI493
F-2.4892494938688463
sI494
F9.9167348747045274
sI495
F-1.660089316146296
sI496
F2.428786509828714
sI497
F-1.3788559254697956
sI498
F-1.2271415043810361
sI499
F7.5737565093534469
sI500
F-1.0663272793732235
sI501
F-4.4568014731500503
sI502
F3.1620420379513074
sI503
F-3.9444247127402949
sI504
F-1.424105714948718
sI505
F3.9676986183787495
sI506
F4.2492145289388006
sI507
F5.5171722815988273
sI508
F13.38091571243716
sI509
F-1.8728530464791415
sI510
F-0.22932955216330519
sI511
F2.800831636512477
sI512
F8.6740707281483154
sI513
F-2.446087950333431
sI514
F4.0070873451668287
sI515
F2.9229663225850508
sI516
F5.7704775304162945
sI517
F-0.69762552987792237
sI518
F6.4198765092750012
sI519
F5.4131349842971348
sI520
F-1.4689471656277693
sI521
F-0.26004745275431951
sI522
F-0.55873056619578154
sI523
F7.7441712945778534
sI524
F-3.7803097962941976
sI525
F-1.1882703327633033
sI526
F-2.9925520708200928
sI527
F0.034930085338742423
sI528
F-2.8370189004397997
sI529
F-1.3337032615991857
sI530
F-0.84404642250602802
sI531
F-3.2578891068360916
sI532
F1.0789101192862773
sI533
F11.486762107793361
sI534
F6.4527509751536041
sI535
F-3.939183657745037
sI536
F0.69257022822294356
sI537
F2.703248273234597
sI538
F6.3057930756904623
sI539
F4.8634554639460994
sI540
F9.175861033458574
sI541
F3.1283484104577712
sI542
F-1.3193276387524548
sI543
F0.10505714953455492
sI544
F-1.8330906373753955
sI545
F4.0678353276223618
sI546
F5.1652292403494151
sI547
F3.0340355171660445
sI548
F-2.2225361789918718
sI549
F5.0709485791304303
sI550
F-2.6958123612143181
sI551
F-2.4332659386821067
sI552
F-1.944207380887617
sI553
F-3.2210517981665463
sI554
F6.8890083732609684
sI555
F7.6770967403471859
sI556
F-1.8143250283891099
sI557
F-0.84715382643115689
sI558
F10.482042364327995
sI559
F-3.3259691425210685
sI560
F-3.7724013048172971
sI561
F14.913908523557637
sI562
F1.5003369248686012
sI563
F5.322226529382565
sI564
F5.1250534788489119
sI565
F2.2791122966070834
sI566
F-4.1989657552719732
sI567
F-3.4844131366612761
sI568
F-2.9561473224053003
sI569
F5.1154452355024711
sI570
F-2.1610807569379853
sI571
F6.2640667540798036
sI572
F1.4843125510763189
sI573
F-0.87770783048562517
sI574
F1.7343591319667366
sI575
F1.3171564001252758
sI576
F-0.18268217890059368
sI577
F7.4289012687952676
sI578
F3.7925816790246394
sI579
F4.8661305236557721
sI580
F0.49842836751926534
sI581
F-3.3557007991866845
sI582
F-1.9079157204997665
sI583
F-0.21699772884989965
sI584
F14.445589525452856
sI585
F9.0162613909123763
sI586
F4.8651433679005525
sI587
F9.7103576706206667
sI588
F0.5868859147972767
sI589
F4.4258297326286504
sI590
F7.2895831258317569
sI591
F-4.1328555381558028
sI592
F-1.1780753921330165
sI593
F-2.7203932952175158
sI594
F-0.50103925824019147
sI595
F-1.5948430228398296
sI596
F0.01444510209373151
sI597
F7.2008335866283328
sI598
F-3.8640850789590493
sI599
F3.034054204528398
sI600
F-0.12571359878942712
sI601
F-1.1338305027273989
sI602
F-4.092217075435169
sI603
F-1.6226502064596318
sI604
F2.7478787052591569
sI605
F-1.0260859135460008
sI606
F4.2218448105182169
sI607
F-2.3195110228183413
sI608
F-2.5121715334622383
sI609
F7.9985693727643801
sI610
F5.168901654930333
sI611
F-0.98183708700534922
sI612
F-5.1651720190092103
sI613
F-1.1984382588049991
sI614
F7.7197340198162072
sI615
F-1.5434720857470197
sI616
F7.1467105297587254
sI617
F-6.7821983564532671
sI618
F0.36821851053153498
sI619
F2.3473373621465701
sI620
F4.0545104036932287
sI621
F2.0236529836555945
sI622
F-1.7249579279271607
sI623
F-2.4545649981506772
sI624
F8.2434898433908614
sI625
F-0.10082831526939273
sI626
F-0.55429362206700361
sI627
F-0.30030013180543058
sI628
F0.14300284463182944
sI629
F-2.1162799556869798
sI630
F-1.1474614088137329
sI631
F-2.549085618852013
sI632
F2.6113507239131115
sI633
F9.2490078295138964
sI634
F-2.6171415227826929
sI635
F-1.8806630511252882
sI636
F-0.96697014760636435
sI637
F-0.92785777574663619
sI638
F7.3105546960284196
sI639
F-3.5593490501041032
sI640
F5.0788440153539467
sI641
F-2.4999446000406325
sI642
F-2.2973477432441909
sI643
F3.1429457531845308
sI644
F-2.4901528037870282
sI645
F6.3013393678168637
sI646
F4.376341647195467
sI647
F6.7244491739062475
sI648
F-4.2267364538240662
sI649
F-2.272020172046731
sI650
F0.90921402836115384
sI651
F5.2052711475548694
sI652
F-0.48652454208755724
sI653
F6.6351966946651419
sI654
F-3.8915540444091983
sI655
F-3.9676997899474609
sI656
F6.8639345124922846
sI657
F-1.9231444542767431
sI658
F-2.3006506124064607
sI659
F-1.1119083414691264
sI660
F8.5411971935662088
sI661
F-3.1524706252574379
sI662
F-3.1940698814908002
sI663
F-8.3650473546820905
sI664
F4.5026244741411743
sI665
F4.0575436876247917
sI666
F-2.3275132089084014
sI667
F3.9229702270427937
sI668
F-3.677134395732649
sI669
F3.46475424658228
sI670
F0.43535700067136496
sI671
F-2.7450133207672787
sI672
F-1.9850235736417217
sI673
F-0.046604818257809377
sI674
F-0.49898910007953123
sI675
F2.9389697377376391
sI676
F6.7321023490984393
sI677
F8.9648070787233038
sI678
F6.9889924990352501
sI679
F-5.0190944849494024
sI680
F-4.1426054810575108
sI681
F4.1151267018230566
sI682
F5.4307608564765397
sI683
F7.9492099340272739
sI684
F-1.9909540289244267
sI685
F19.003390076918972
sI686
F4.3354711683137497
sI687
F-3.5724222781269663
sI688
F1.3260501089723524
sI689
F-2.9735488077959662
sI690
F-1.2547976950559008
sI691
F-4.2615858648629636
sI692
F0.41687264564901572
sI693
F0.18044634616503696
sI694
F-0.88973625712345861
sI695
F1.3356086926581412
sI696
F0.60357480761081916
sI697
F-4.7653629686780397
sI698
F4.5703032003724466
sI699
F-0.36209176974652735
sI700
F-0.85913473536493967
sI701
F-3.0457041742051585
sI702
F-4.1738074727679662
sI703
F-0.13623802723168055
sI704
F-3.3493154954411297
sI705
F11.270177121006085
sI706
F-2.5099192009287661
sI707
F7.1771960697244159
sI708
F3.0098645219695146
sI709
F-4.2766705294410761
sI710
F-4.2000467998426396
sI711
F6.7490089969917904
sI712
F-3.8845585046833717
sI713
F-3.3881119563826951
sI714
F0.8849146120866358
sI715
F-2.5353097965822133
sI716
F2.9400502871627641
sI717
F-2.504930846434168
sI718
F8.9141563716107921
sI719
F11.065445180226607
sI720
F-5.5231807396861106
sI721
F-2.6694467574385934
sI722
F0.034163714713468796
sI723
F3.9341005495582131
sI724
F4.187614771764979
sI725
F5.3491697743434754
sI726
F28.252859728155713
sI727
F5.1835310025545134
sI728
F2.9009293559633544
sI729
F3.2289948307288308
sI730
F0.34084198025817258
sI731
F28.307214514321796
sI732
F-2.2189082647329625
sI733
F-0.9967578733436584
sI734
F4.8635073829514175
sI735
F-3.2677902601323172
sI736
F8.1990870836880099
sI737
F1.9365685103557801
sI738
F3.3578329038013788
sI739
F1.2797284175419561
sI740
F-5.1581280504702978
sI741
F-2.5855578488538775
sI742
F-1.0802061423842551
sI743
F3.0855925897204619
sI744
F1.4939061270278629
sI745
F-3.0769630398857863
sI746
F-0.98168290665082836
sI747
F2.1952598775447365
sI748
F0.0057180817396260686
sI749
F-4.6931453427311185
sI750
F-3.1005969570326943
sI751
F3.8097781917801319
sI752
F-1.66940551918798
sI753
F8.7507065753303159
sI754
F2.7672750862765687
sI755
F0.97302124531585843
sI756
F-4.5069690517707501
sI757
F3.0037459153328241
sI758
F8.191171543798518
sI759
F2.6523239989038334
sI760
F-2.3619023853121339
sI761
F-3.6990419366460374
sI762
F-1.9281040816552286
sI763
F4.9553207854209251
sI764
F-3.3225344774145436
sI765
F4.1580499798470374
sI766
F-3.9188743782741424
sI767
F11.916489779783834
sI768
F-4.5457486851431863
sI769
F-3.0155769345004249
sI770
F-4.5150089886247553
sI771
F1.8168734203339434
sI772
F5.6131617030735583
sI773
F8.1201060394170561
sI774
F4.3943672180325954
sI775
F-2.4224976034218404
sI776
F2.258204132195937
sI777
F-2.0653459830003653
sI778
F-0.011204649673611122
sI779
F-3.5422220920373029
sI780
F4.9687848447032534
sI781
F-1.3708517730331442
sI782
F-0.15222070801214249
sI783
F0.34291611906168029
sI784
F-0.65277696174917788
sI785
F4.542501428929552
sI786
F6.1361053618857335
sI787
F6.6991968233193173
sI788
F3.9123631470061175
sI789
F0.95406288533930184
sI790
F2.1797164942657865
sI791
F-1.8129736937717178
sI792
F3.6186604078313547
sI793
F1.208055824186486
sI794
F2.7895537145640468
sI795
F-2.336927051320604
sI796
F17.244878282973698
sI797
F-4.020743602932944
sI798
F-0.27234196500313645
sI799
F-2.412290577638819
sI800
F6.3494403480052801
sI801
F2.5839333288843678
sI802
F4.8530076294470348
sI803
F1.4810125843311761
sI804
F4.9065707087542192
sI805
F-7.5634373729921087
sI806
F-1.8723816381905607
sI807
F-4.0654834886553139
sI808
F1.2472011548375095
sI809
F-0.47974777954971337
sI810
F6.4171370988146892
sI811
F2.4624793506261007
sI812
F-0.41870387773221429
sI813
F5.7206338001916741
sI814
F1.1270772301539225
sI815
F3.2217674284713338
sI816
F3.6471256938355907
sI817
F-4.9212308628016297
sI818
F5.3076748016525608
sI819
F-5.9093489477724885
sI820
F4.3519392748936871
sI821
F2.5185307308756011
sI822
F-4.2410784747598216
sI823
F-4.287083121194291
sI824
F-3.203152472032226
sI825
F-3.2834265302446486
sI826
F5.880845837242334
sI827
F-2.0106883478670605
sI828
F2.4066871149817635
sI829
F-4.9215863245988833
sI830
F-2.3285269628185308
sI831
F4.8534443550223889
sI832
F-4.9290777858038508
sI833
F2.395894612997564
sI834
F-3.4609168902951852
sI835
F0.3067355215823806
sI836
F5.9340305081294602
sI837
F4.4725930682938193
sI838
F5.0312432075873792
sI839
F7.05321831629906
sI840
F2.3368737663742429
sI841
F8.7383507962583344
sI842
F-1.6941716186204552
sI843
F1.3110184505357552
sI844
F-0.27545584608489282
sI845
F0.11043128007130498
sI846
F7.5059744494397203
sI847
F-5.2908384136375748
sI848
F-3.6382276478439968
sI849
F9.5503089722818224
sI850
F-0.14105538586475408
sI851
F3.4593386131534443
sI852
F2.9887000913997595
sI853
F-4.4364524322850887
sI854
F2.5540985191622232
sI855
F0.25016691808798708
sI856
F-0.79321474327750607
sI857
F-0.70931874438133224
sI858
F7.8292501694053698
sI859
F-0.25083199892856012
sI860
F-4.7016110396628079
sI861
F2.9654468915905223
sI862
F1.4473324090507997
sI863
F5.405623044040369
sI864
F3.4100390913853538
sI865
F-2.2781697315728744
sI866
F-4.423720383536291
sI867
F6.5458931367442652
sI868
F5.7909584312762208
sI869
F4.9203907841645984
sI870
F0.84806558415075228
sI871
F-1.4495408135019145
sI872
F-3.140453294643577
sI873
F5.5344089576314026
sI874
F4.6141264893789833
sI875
F-2.7658786978264764
sI876
F6.3066822541593472
sI877
F-2.6025289637995508
sI878
F-1.787041676075372
sI879
F5.6643806803929602
sI880
F3.6163143149250905
sI881
F7.1247881341439792
sI882
F-4.316064056589962
sI883
F-0.70928334360068312
sI884
F1.3884356679800165
sI885
F0.35239002791913254
sI886
F-0.63045319258968258
sI887
F5.3595880072749988
sI888
F7.1292017263751788
sI889
F28.38559617670472
sI890
F1.9666660788152948
sI891
F-1.8787661007514433
sI892
F-0.95751526850174606
sI893
F-2.3646023344899225
sI894
F0.0042700701786873019
sI895
F-2.0657796239044304
sI896
F-3.0223542666551344
sI897
F-4.7774221195091773
sI898
F7.1756094474712784
sI899
F3.3700978789713467
sI900
F2.513017524856882
sI901
F4.5540695632394712
sI902
F0.56201322764775563
sI903
F-4.8992746593238392
sI904
F1.7538072315175781
sI905
F12.727388772639479
sI906
F8.170602555545921
sI907
F0.068103856909553784
sI908
F0.4309203293511974
sI909
F-3.4299566855914074
sI910
F-5.0941040122640047
sI911
F4.2110373979933957
sI912
F-2.208067430098489
sI913
F3.26467539338792
sI914
F-0.52530287975530765
sI915
F-0.62711342823891414
sI916
F2.8670716305035047
sI917
F-0.85208438600704905
sI918
F4.8627936501898574
sI919
F-2.4543469938777172
sI920
F-3.9315680778867961
sI921
F-2.6234026125588681
sI922
F2.5865446752186108
sI923
F6.9795152331328341
sI924
F2.8955245257715507
sI925
F-3.2838631319657159
sI926
F2.2024272387326995
sI927
F8.7114233057514809
sI928
F-5.0312485666554343
sI929
F-5.2969777315641142
sI930
F4.4758525092602621
sI931
F-4.4383032333121761
sI932
F5.5092761951962652
sI933
F-1.7257447227704787
sI934
F-4.6939078986973364
sI935
F3.7797090188819169
sI936
F7.7438065516748571
sI937
F14.613140115255561
sI938
F-5.7624904304844273
sI939
F7.2196919702041535
sI940
F-4.6453671369813998
sI941
F-4.408555895417007
sI942
F4.7948660826970739
sI943
F-0.0079440441469902368
sI944
F-2.9497803839404941
sI945
F-3.3208245754969665
sI946
F-2.290192580889677
sI947
F3.8029719567181539
sI948
F15.669385926115792
sI949
F-2.2143601974509126
sI950
F0.18559031632077883
sI951
F-0.22617255839340755
sI952
F0.35849331639808346
sI953
F-5.0180461499238822
sI954
F9.5891896302098338
sI955
F7.2561557052966421
sI956
F-2.5617692473364047
sI957
F0.019601521968575675
sI958
F-4.5187678642781748
sI959
F-0.12376908488404004
sI960
F5.8389117415639467
sI961
F-3.4521050533285313
sI962
F5.733516537730611
sI963
F-4.112900304532829
sI964
F4.1662365807500832
sI965
F4.8385386193260773
sI966
F0.68532157071230682
sI967
F-3.2368175385974656
sI968
F-0.46021422988239369
sI969
F2.8203207123176712
sI970
F-1.5387060867416951
sI971
F-5.307468325143704
sI972
F5.8633975309559334
sI973
F-3.0923309683602369
sI974
F-3.1470677052807439
sI975
F8.7248333442652157
sI976
F-0.18869317248834694
sI977
F-4.9603356821326745
sI978
F-3.8672801068875362
sI979
F-3.0729649342704493
sI980
F-5.9541935848654868
sI981
F-4.0206838355300158
sI982
F-3.567590586779156
sI983
F-4.0911718983475867
sI984
F8.9690574552645064
sI985
F3.2841776679927923
sI986
F-4.8400349360268367
sI987
F9.813243560877801
sI988
F-2.9652884122628622
sI989
F3.2781472681774506
sI990
F2.35146923942958
sI991
F-3.1030554981408569
sI992
F1.9918141865558434
sI993
F-4.0946774140021827
sI994
F-4.3595654806401001
sI995
F-1.9311035803777825
sI996
F0.8904182611945517
sI997
F-4.6209934404557229
sI998
F0.057953415797535879
sI999
F4.6858882514945099
sI1000
F4.3597404414631225
s.